
candy_gw_10m16.elf:     file format elf32-littlenios2
candy_gw_10m16.elf
architecture: nios2:r1, flags 0x00000112:
EXEC_P, HAS_SYMS, D_PAGED
start address 0x00000020

Program Header:
    LOAD off    0x00001020 vaddr 0x00000020 paddr 0x00000020 align 2**12
         filesz 0x000127b8 memsz 0x00015c58 flags rwx
    LOAD off    0x00014000 vaddr 0x04100000 paddr 0x04100000 align 2**12
         filesz 0x00000000 memsz 0x00000000 flags r-x

Sections:
Idx Name          Size      VMA       LMA       File off  Algn
  0 .entry        00000000  04100000  04100000  00014000  2**5
                  CONTENTS, ALLOC, LOAD, READONLY, CODE
  1 .exceptions   00000000  00000020  00000020  00014000  2**0
                  CONTENTS
  2 .text         0001032c  00000020  00000020  00001020  2**2
                  CONTENTS, ALLOC, LOAD, READONLY, CODE
  3 .rodata       000004b8  0001034c  0001034c  0001134c  2**2
                  CONTENTS, ALLOC, LOAD, READONLY, DATA
  4 .rwdata       00001fd4  00010804  00010804  00011804  2**2
                  CONTENTS, ALLOC, LOAD, DATA, SMALL_DATA
  5 .bss          000034a0  000127d8  000127d8  000137d8  2**2
                  ALLOC, SMALL_DATA
  6 .new_sdram_controller_0 00000000  00015c78  00015c78  00014000  2**0
                  CONTENTS
  7 .intel_generic_serial_flash_interface_top_0_avl_mem 00000000  03000000  03000000  00014000  2**0
                  CONTENTS
  8 .onchip_flash_0_data 00000000  04100020  04100020  00014000  2**0
                  CONTENTS
  9 .comment      00000023  00000000  00000000  00014000  2**0
                  CONTENTS, READONLY
 10 .debug_aranges 00000d08  00000000  00000000  00014028  2**3
                  CONTENTS, READONLY, DEBUGGING
 11 .debug_info   0002251b  00000000  00000000  00014d30  2**0
                  CONTENTS, READONLY, DEBUGGING
 12 .debug_abbrev 00008b66  00000000  00000000  0003724b  2**0
                  CONTENTS, READONLY, DEBUGGING
 13 .debug_line   0000ae09  00000000  00000000  0003fdb1  2**0
                  CONTENTS, READONLY, DEBUGGING
 14 .debug_frame  0000234c  00000000  00000000  0004abbc  2**2
                  CONTENTS, READONLY, DEBUGGING
 15 .debug_str    0000432f  00000000  00000000  0004cf08  2**0
                  CONTENTS, READONLY, DEBUGGING
 16 .debug_loc    00019c3b  00000000  00000000  00051237  2**0
                  CONTENTS, READONLY, DEBUGGING
 17 .debug_alt_sim_info 00000050  00000000  00000000  0006ae74  2**2
                  CONTENTS, READONLY, DEBUGGING
 18 .debug_ranges 000018c0  00000000  00000000  0006aec4  2**0
                  CONTENTS, READONLY, DEBUGGING
 19 .thread_model 00000003  00000000  00000000  0007092e  2**0
                  CONTENTS, READONLY
 20 .cpu          00000007  00000000  00000000  00070931  2**0
                  CONTENTS, READONLY
 21 .qsys         00000001  00000000  00000000  00070938  2**0
                  CONTENTS, READONLY
 22 .simulation_enabled 00000001  00000000  00000000  00070939  2**0
                  CONTENTS, READONLY
 23 .sysid_hash   00000004  00000000  00000000  0007093a  2**0
                  CONTENTS, READONLY
 24 .sysid_base   00000004  00000000  00000000  0007093e  2**0
                  CONTENTS, READONLY
 25 .sysid_time   00000004  00000000  00000000  00070942  2**0
                  CONTENTS, READONLY
 26 .stderr_dev   0000000a  00000000  00000000  00070946  2**0
                  CONTENTS, READONLY
 27 .stdin_dev    0000000a  00000000  00000000  00070950  2**0
                  CONTENTS, READONLY
 28 .stdout_dev   0000000a  00000000  00000000  0007095a  2**0
                  CONTENTS, READONLY
 29 .sopc_system_name 0000000d  00000000  00000000  00070964  2**0
                  CONTENTS, READONLY
 30 .quartus_project_dir 0000003b  00000000  00000000  00070971  2**0
                  CONTENTS, READONLY
 31 .jdi          0000619d  00000000  00000000  000709ac  2**0
                  CONTENTS, READONLY
 32 .sopcinfo     000cf27e  00000000  00000000  00076b49  2**0
                  CONTENTS, READONLY
SYMBOL TABLE:
04100000 l    d  .entry	00000000 .entry
00000020 l    d  .exceptions	00000000 .exceptions
00000020 l    d  .text	00000000 .text
0001034c l    d  .rodata	00000000 .rodata
00010804 l    d  .rwdata	00000000 .rwdata
000127d8 l    d  .bss	00000000 .bss
00015c78 l    d  .new_sdram_controller_0	00000000 .new_sdram_controller_0
03000000 l    d  .intel_generic_serial_flash_interface_top_0_avl_mem	00000000 .intel_generic_serial_flash_interface_top_0_avl_mem
04100020 l    d  .onchip_flash_0_data	00000000 .onchip_flash_0_data
00000000 l    d  .comment	00000000 .comment
00000000 l    d  .debug_aranges	00000000 .debug_aranges
00000000 l    d  .debug_info	00000000 .debug_info
00000000 l    d  .debug_abbrev	00000000 .debug_abbrev
00000000 l    d  .debug_line	00000000 .debug_line
00000000 l    d  .debug_frame	00000000 .debug_frame
00000000 l    d  .debug_str	00000000 .debug_str
00000000 l    d  .debug_loc	00000000 .debug_loc
00000000 l    d  .debug_alt_sim_info	00000000 .debug_alt_sim_info
00000000 l    d  .debug_ranges	00000000 .debug_ranges
00000000 l    df *ABS*	00000000 ../candy_gw_10m16_bsp//obj/HAL/src/crt0.o
000000b0 l       .text	00000000 alt_after_alt_main
00000000 l    df *ABS*	00000000 SigmaStudioFW.c
00000000 l    df *ABS*	00000000 hello_world_small.c
000007a8 l     F .text	00000068 alt_dma_txchan_send
00000810 l     F .text	00000068 alt_dma_rxchan_prepare
00001250 l     F .text	000002e4 isr_timer0
00001534 l     F .text	00000034 dma_rx_done1
00001568 l     F .text	000000b4 dma_rx_done
0000161c l     F .text	000000d4 fifo_callback
00000000 l    df *ABS*	00000000 memset.c
00000000 l    df *ABS*	00000000 printf.c
00000000 l    df *ABS*	00000000 puts.c
00000000 l    df *ABS*	00000000 strlen.c
00000000 l    df *ABS*	00000000 vfprintf.c
0001051a l     O .rodata	00000010 zeroes.4404
00003f84 l     F .text	000000bc __sbprintf
0001052a l     O .rodata	00000010 blanks.4403
00000000 l    df *ABS*	00000000 wsetup.c
00000000 l    df *ABS*	00000000 dtoa.c
00004194 l     F .text	00000200 quorem
00000000 l    df *ABS*	00000000 fflush.c
00000000 l    df *ABS*	00000000 findfp.c
00005cc4 l     F .text	00000008 __fp_unlock
00005cd8 l     F .text	0000019c __sinit.part.1
00005e74 l     F .text	00000008 __fp_lock
00000000 l    df *ABS*	00000000 mallocr.c
00000000 l    df *ABS*	00000000 fvwrite.c
00000000 l    df *ABS*	00000000 fwalk.c
00000000 l    df *ABS*	00000000 impure.c
00010a8c l     O .rwdata	00000424 impure_data
00000000 l    df *ABS*	00000000 locale.c
00010ed0 l     O .rwdata	00000020 lc_ctype_charset
00010eb0 l     O .rwdata	00000020 lc_message_charset
00010ef0 l     O .rwdata	00000038 lconv
00000000 l    df *ABS*	00000000 makebuf.c
00000000 l    df *ABS*	00000000 mallocr.c
00000000 l    df *ABS*	00000000 memchr.c
00000000 l    df *ABS*	00000000 memcpy.c
00000000 l    df *ABS*	00000000 memmove.c
00000000 l    df *ABS*	00000000 mprec.c
0001055c l     O .rodata	0000000c p05.2768
00000000 l    df *ABS*	00000000 mallocr.c
00000000 l    df *ABS*	00000000 s_fpclassify.c
00000000 l    df *ABS*	00000000 sbrkr.c
00000000 l    df *ABS*	00000000 stdio.c
00000000 l    df *ABS*	00000000 strcmp.c
00000000 l    df *ABS*	00000000 vfprintf.c
00009148 l     F .text	000000fc __sprint_r.part.0
00010690 l     O .rodata	00000010 blanks.4348
00010680 l     O .rodata	00000010 zeroes.4349
0000a6d4 l     F .text	000000bc __sbprintf
00000000 l    df *ABS*	00000000 writer.c
00000000 l    df *ABS*	00000000 closer.c
00000000 l    df *ABS*	00000000 mallocr.c
00000000 l    df *ABS*	00000000 fclose.c
00000000 l    df *ABS*	00000000 fputwc.c
00000000 l    df *ABS*	00000000 fstatr.c
00000000 l    df *ABS*	00000000 int_errno.c
00000000 l    df *ABS*	00000000 isattyr.c
00000000 l    df *ABS*	00000000 lseekr.c
00000000 l    df *ABS*	00000000 readr.c
00000000 l    df *ABS*	00000000 wbuf.c
00000000 l    df *ABS*	00000000 wcrtomb.c
00000000 l    df *ABS*	00000000 wctomb_r.c
00000000 l    df *ABS*	00000000 libgcc2.c
00000000 l    df *ABS*	00000000 libgcc2.c
00000000 l    df *ABS*	00000000 lib2-divmod.c
00000000 l    df *ABS*	00000000 adddf3.c
00000000 l    df *ABS*	00000000 divdf3.c
00000000 l    df *ABS*	00000000 eqdf2.c
00000000 l    df *ABS*	00000000 gedf2.c
00000000 l    df *ABS*	00000000 ledf2.c
00000000 l    df *ABS*	00000000 muldf3.c
00000000 l    df *ABS*	00000000 subdf3.c
00000000 l    df *ABS*	00000000 fixdfsi.c
00000000 l    df *ABS*	00000000 floatsidf.c
00000000 l    df *ABS*	00000000 floatunsidf.c
00000000 l    df *ABS*	00000000 libgcc2.c
00000000 l    df *ABS*	00000000 libgcc2.c
00000000 l    df *ABS*	00000000 alt_close.c
00000000 l    df *ABS*	00000000 alt_dma_rxchan_open.c
00000000 l    df *ABS*	00000000 alt_dma_txchan_open.c
00000000 l    df *ABS*	00000000 alt_errno.c
00000000 l    df *ABS*	00000000 alt_find_dev.c
00000000 l    df *ABS*	00000000 alt_fstat.c
00000000 l    df *ABS*	00000000 alt_isatty.c
00000000 l    df *ABS*	00000000 alt_lseek.c
00000000 l    df *ABS*	00000000 alt_main.c
00000000 l    df *ABS*	00000000 alt_malloc_lock.c
00000000 l    df *ABS*	00000000 alt_read.c
00000000 l    df *ABS*	00000000 alt_sbrk.c
000127bc l     O .rwdata	00000004 heap_end
00000000 l    df *ABS*	00000000 alt_usleep.c
00000000 l    df *ABS*	00000000 alt_write.c
00000000 l    df *ABS*	00000000 alt_sys_init.c
000126bc l     O .rwdata	0000009c vic_0
000125e0 l     O .rwdata	0000001c dma_rx_rx
000125fc l     O .rwdata	0000001c dma_rx_tx
00012504 l     O .rwdata	0000001c dma_tx_rx
00012520 l     O .rwdata	0000001c dma_tx_tx
00011330 l     O .rwdata	00000100 onchip_flash_0
0001253c l     O .rwdata	000000a4 dma_tx_priv
00012618 l     O .rwdata	000000a4 dma_rx_priv
00000000 l    df *ABS*	00000000 altera_avalon_dma.c
0000e774 l     F .text	00000134 alt_avalon_dma_irq
0000e920 l     F .text	00000044 alt_avalon_dma_launch_txonly
0000e964 l     F .text	00000044 alt_avalon_dma_launch_rxonly
0000e9a8 l     F .text	0000018c alt_avalon_dma_ioctl
000107d4 l     O .rodata	00000010 CSWTCH.10
00000000 l    df *ABS*	00000000 altera_avalon_fifo_util.c
00000000 l    df *ABS*	00000000 altera_avalon_jtag_uart_init.c
0000ef18 l     F .text	00000048 altera_avalon_jtag_uart_timeout
0000ef60 l     F .text	000000e8 altera_avalon_jtag_uart_irq
00000000 l    df *ABS*	00000000 altera_avalon_jtag_uart_read.c
00000000 l    df *ABS*	00000000 altera_avalon_jtag_uart_write.c
00000000 l    df *ABS*	00000000 altera_avalon_timer_sc.c
0000f3c0 l     F .text	00000054 alt_avalon_timer_sc_irq
00000000 l    df *ABS*	00000000 altera_avalon_uart_init.c
0000f45c l     F .text	00000134 altera_avalon_uart_irq
00000000 l    df *ABS*	00000000 altera_onchip_flash.c
00000000 l    df *ABS*	00000000 altera_vic_irq_init.c
000107e4 l     O .rodata	00000020 VEC_SIZE_ARRAY.1850
00000000 l    df *ABS*	00000000 altera_vic_isr_register.c
00000000 l    df *ABS*	00000000 alt_alarm_start.c
00000000 l    df *ABS*	00000000 alt_busy_sleep.c
00000000 l    df *ABS*	00000000 alt_dcache_flush.c
00000000 l    df *ABS*	00000000 alt_dev_llist_insert.c
00000000 l    df *ABS*	00000000 alt_flash_dev.c
00000000 l    df *ABS*	00000000 alt_tick.c
00000000 l    df *ABS*	00000000 memcmp.c
00000dd4 g     F .text	00000048 read_bank_register
0000878c g     F .text	00000074 _mprec_log10
00008878 g     F .text	0000008c __any_on
0000ac70 g     F .text	00000054 _isatty_r
00010568 g     O .rodata	00000028 __mprec_tinytens
0000e548 g     F .text	0000002c alt_main
00001c04 g     F .text	000000c0 _puts_r
00012777 g     O .rwdata	00000005 R22_CRC_REGISTERS_IC_1_Default
0000acc4 g     F .text	00000060 _lseek_r
0000edbc g     F .text	0000001c altera_avalon_fifo_write_almostfull
0000cebc g     F .text	00000088 .hidden __eqdf2
00015c78 g       *ABS*	00000000 __alt_heap_start
00001bc8 g     F .text	0000003c printf
0000aedc g     F .text	0000009c _wcrtomb_r
00009008 g     F .text	0000005c __sseek
00006014 g     F .text	00000010 __sinit
0000ecb8 g     F .text	00000090 alt_avalon_dma_init
000004b8 g     F .text	00000084 SIGMA_WRITE_REGISTER_BLOCK
0000ad84 g     F .text	00000140 __swbuf_r
000127f0 g     O .bss	00000004 fill_count
00012808 g     O .bss	00000004 rxchan1
00006adc g     F .text	0000007c _setlocale_r
00005e7c g     F .text	00000068 __sfmoreglue
00010a16 g     O .rwdata	00000048 Param_Data_IC_1
0000e578 g     F .text	00000004 __malloc_unlock
00000d84 g     F .text	00000050 clear_flag_status_register
000127f4 g     O .bss	00000004 rx_done
000127e5 g     O .bss	00000001 R28_ROUTING_MATRIX_OUTPUTS_IC_1_Default
000077ac g     F .text	0000015c memmove
0000edf4 g     F .text	00000098 altera_avalon_fifo_init
00005ffc g     F .text	00000018 _cleanup
0000ee8c g     F .text	0000001c altera_avalon_fifo_write_fifo
00007908 g     F .text	000000a8 _Balloc
0000cf44 g     F .text	000000dc .hidden __gtdf2
0001284c g     O .bss	00001402 i2c_write_data
04100000 g     F .entry	00000000 __reset
0000ef10 g     F .text	00000008 altera_avalon_fifo_read_backpressure
0000ac14 g     F .text	0000005c _fstat_r
00012830 g     O .bss	00000004 errno
00008f84 g     F .text	00000008 __seofread
00000f04 g     F .text	00000050 write_config_register
00012838 g     O .bss	00000004 alt_argv
000127ec g     O .bss	00000004 callback_count
0001a758 g       *ABS*	00000000 _gp
0000e638 g     F .text	00000004 usleep
0000fbfc g     F .text	0000005c alt_onchip_flash_poll_for_status_write_passed
0000ed84 g     F .text	0000001c altera_avalon_fifo_clear_event
00012800 g     O .bss	00000004 pwm_interval0
0000e41c g     F .text	0000004c alt_dma_txchan_open
00000644 g     F .text	000000e4 SIGMA_SAFELOAD_WRITE_DATA
000127dd g     O .bss	00000001 R7_MICCTRLREGISTER_IC_1_Default
0001277c g     O .rwdata	00000002 R24_NON_MODULO_REGISTERS_IC_1_Default
0001275a g     O .rwdata	00000006 R3_PLLCRLREGISTER_IC_1_Default
0000fe0c g       .text	00000000 VIC_0_VECTOR_TABLE
0000e468 g     F .text	00000074 alt_find_dev
00007664 g     F .text	00000148 memcpy
04100000 g       *ABS*	00000000 __alt_mem_onchip_flash_0_data
00005ccc g     F .text	0000000c _cleanup_r
0000e1a8 g     F .text	000000dc .hidden __floatsidf
0000d020 g     F .text	000000f4 .hidden __ltdf2
00000320 g     F .text	00000198 i2c_multiple_write
00000ce4 g     F .text	00000050 write_enable
00001cc4 g     F .text	00000014 puts
00008e68 g     F .text	00000074 __fpclassifyd
000086e8 g     F .text	000000a4 __ratio
0000a6b8 g     F .text	0000001c __vfiprintf_internal
0000f0f0 g     F .text	00000150 altera_avalon_jtag_uart_read
00001b98 g     F .text	00000030 _printf_r
0000bc6c g     F .text	00000064 .hidden __udivsi3
0000e4fc g     F .text	0000000c isatty
0000fab4 g     F .text	0000005c alt_onchip_flash_poll_for_status_erase_passed
000105b8 g     O .rodata	000000c8 __mprec_tens
00006b58 g     F .text	0000000c __locale_charset
0001276f g     O .rwdata	00000003 R12_DAC_CONTROL_REGISTERS_IC_1_Default
0001282c g     O .bss	00000004 __malloc_top_pad
000127c0 g     O .rwdata	00000008 altera_onchip_flash_list
00012798 g     O .rwdata	00000004 __mb_cur_max
00006b88 g     F .text	0000000c _localeconv_r
00007d14 g     F .text	0000003c __i2b
00006498 g     F .text	000004bc __sfvwrite_r
00012762 g     O .rwdata	00000002 R5_SERIAL_PORT_CONTROL_REGISTERS_IC_1_Default
00008edc g     F .text	00000054 _sbrk_r
000010f0 g     F .text	00000060 write_memory
00010a6c g     O .rwdata	00000010 pwm_direction
0001280c g     O .bss	00000004 rxchan
0000ad24 g     F .text	00000060 _read_r
000100dc g     F .text	00000028 alt_dcache_flush
0000fb10 g     F .text	000000ec alt_onchip_flash_erase_block
00000ff4 g     F .text	00000054 read_memory
0000a908 g     F .text	000000f0 _fclose_r
00000c0c g     F .text	00000048 read_device_id
02000000 g       *ABS*	00000000 __alt_interrupt_stack_pointer
00005c94 g     F .text	00000030 fflush
00012828 g     O .bss	00000004 __malloc_max_sbrked_mem
000127fc g     O .bss	00000004 pwm_addr0
00001150 g     F .text	00000060 write_memory_3byte
0000bd28 g     F .text	000008ac .hidden __adddf3
0000e8a8 g     F .text	00000078 alt_avalon_dma_launch_bidir
0000028c g     F .text	00000094 i2c_write_byte_stop
0001278c g     O .rwdata	00000004 pwm_addr1
00008490 g     F .text	0000010c __b2d
0000b63c g     F .text	00000538 .hidden __umoddi3
0000e3d0 g     F .text	0000004c alt_dma_rxchan_open
0000e508 g     F .text	00000040 lseek
00012790 g     O .rwdata	00000004 _global_impure_ptr
00008904 g     F .text	00000564 _realloc_r
00015c78 g       *ABS*	00000000 __bss_end
00010a5e g     O .rwdata	0000000e R10_PLAYBACK_OUTPUT_SIGNAL_PATH_REGISTERS_IC_1_Default
00010218 g     F .text	000000b8 alt_tick
00012764 g     O .rwdata	00000008 R8_RECORD_INPUT_SIGNAL_PATH_REGISTERS_IC_1_Default
0000b0c4 g     F .text	00000578 .hidden __udivdi3
0000ab70 g     F .text	00000024 _fputwc_r
00010590 g     O .rodata	00000028 __mprec_bigtens
00007af8 g     F .text	00000104 __s2b
0000e284 g     F .text	000000a8 .hidden __floatunsidf
000005b8 g     F .text	0000008c SIGMA_SAFELOAD_WRITE_ADDR
000081d0 g     F .text	00000060 __mcmp
0000f590 g     F .text	00000040 altera_avalon_uart_init
00006034 g     F .text	00000018 __fp_lock_all
00000728 g     F .text	00000080 SIGMA_SAFELOAD_WRITE_TRANSFER_BIT
000101d4 g     F .text	00000044 alt_alarm_stop
00012775 g     O .rwdata	00000001 R15_JACKREGISTER_IC_1_Default
00000e6c g     F .text	00000050 write_bank_register_exit4byte
00000134 g     F .text	000000a8 i2c_start
000127d8 g     O .bss	00000001 R1_DSP_RUN_REGISTER_IC_1_Default
00007bfc g     F .text	00000068 __hi0bits
000127e6 g     O .bss	00000001 R29_SERIAL_DATAGPIO_PIN_CONFIG_IC_1_Default
0000e128 g     F .text	00000080 .hidden __fixdfsi
0000fe7c g       .text	00000000 alt_shadow_non_preemptive_interrupt
0000eda0 g     F .text	0000001c altera_avalon_fifo_write_ienable
0000ed68 g     F .text	00000008 altera_avalon_fifo_read_almostempty
0000ebec g     F .text	00000024 alt_avalon_dma_space
0000e63c g     F .text	00000060 write
00013c50 g     O .bss	00002000 rx_buffer
0000053c g     F .text	0000007c SIGMA_WRITE_REGISTER_CONTROL
0000e4dc g     F .text	00000020 fstat
00010804 g     O .rwdata	00000212 Program_Data_IC_1
0000d020 g     F .text	000000f4 .hidden __ledf2
000017c8 g     F .text	00000088 initCODEC
00007f48 g     F .text	00000140 __pow5mult
0000925c g     F .text	0000145c ___vfiprintf_internal_r
00012820 g     O .bss	00000004 __nlocale_changed
0000bcd0 g     F .text	00000058 .hidden __umodsi3
000114cc g     O .rwdata	00001038 jtaguart_0
00015c78 g       *ABS*	00000000 end
00012810 g     O .bss	00000004 txchan1
0000f048 g     F .text	00000078 altera_avalon_jtag_uart_init
0000ed70 g     F .text	0000000c altera_avalon_fifo_read_event
01fff000 g       *ABS*	00000000 __alt_stack_pointer
0000f414 g     F .text	00000048 alt_avalon_timer_sc_init
0000e32c g     F .text	00000064 .hidden __clzsi2
0000f240 g     F .text	00000180 altera_avalon_jtag_uart_write
0000eed0 g     F .text	0000001c altera_avalon_fifo_read_fifo
00006024 g     F .text	00000004 __sfp_lock_acquire
00007580 g     F .text	000000e4 memchr
00001d70 g     F .text	000021f8 ___vfprintf_internal_r
0000f664 g     F .text	00000044 alt_onchip_flash_get_info
00006188 g     F .text	00000310 _free_r
00006b64 g     F .text	00000010 __locale_mb_cur_max
0000ec10 g     F .text	000000a8 alt_avalon_dma_send
000127b0 g     O .rwdata	00000008 alt_dma_txchan_list
0001281c g     O .bss	00000004 __mlocale_changed
0001279c g     O .rwdata	00000004 __malloc_sbrk_base
00000020 g     F .text	00000094 _start
00012848 g     O .bss	00000004 _alt_tick_rate
000127e9 g     O .bss	00000001 R37_DEJITTER_REGISTER_CONTROL_IC_1_Default
00008088 g     F .text	00000148 __lshift
00012844 g     O .bss	00000004 _alt_nticks
0000e57c g     F .text	00000054 read
0000e6c8 g     F .text	000000ac alt_sys_init
000127e4 g     O .bss	00000001 R27_ROUTING_MATRIX_INPUTS_IC_1_Default
00007d50 g     F .text	000001f8 __multiply
0000f0c0 g     F .text	00000030 altera_avalon_jtag_uart_close
00015c50 g     O .bss	00000028 __malloc_current_mallinfo
0000859c g     F .text	0000014c __d2b
00000c9c g     F .text	00000048 read_flag_status_register
000127e7 g     O .bss	00000001 R30_DSP_SLEW_MODES_IC_1_Default
00010064 g     F .text	00000078 alt_busy_sleep
0000a7f0 g     F .text	00000054 _close_r
000102d0 g     F .text	0000007c memcmp
00015c78 g       *ABS*	00000000 __alt_stack_base
00012788 g     O .rwdata	00000001 R38_DEJITTER_REGISTER_CONTROL_IC_1_Default
000127de g     O .bss	00000002 R11_CONVERTER_CONTROL_REGISTERS_IC_1_Default
00004040 g     F .text	00000154 __swsetup_r
0000ed48 g     F .text	0000000c altera_avalon_fifo_read_status
0000c5d4 g     F .text	000008e8 .hidden __divdf3
0000f5f4 g     F .text	00000070 alt_onchip_flash_read
00005ee4 g     F .text	00000118 __sfp
00008800 g     F .text	00000078 __copybits
00000e1c g     F .text	00000050 write_bank_register_enter4byte
00010f28 g     O .rwdata	00000408 __malloc_av_
00006030 g     F .text	00000004 __sinit_lock_release
000011b0 g     F .text	00000050 write_register_for_sector_protect_cypress
0000d114 g     F .text	00000718 .hidden __muldf3
00008f30 g     F .text	00000054 __sread
0000ef08 g     F .text	00000008 altera_avalon_fifo_read_other_info
00010104 g     F .text	0000006c alt_dev_llist_insert
0000e574 g     F .text	00000004 __malloc_lock
0000e5d0 g     F .text	00000068 sbrk
00005c38 g     F .text	0000005c _fflush_r
0000a844 g     F .text	000000c4 _calloc_r
000127c8 g     O .rwdata	00000008 alt_flash_dev_list
00012786 g     O .rwdata	00000001 R35_SAMPLE_RATE_SETTING_IC_1_Default
000127d8 g       *ABS*	00000000 __bss_start
000127d9 g     O .bss	00000004 R6_ALC_CONTROL_REGISTERS_IC_1_Default
00001a70 g     F .text	00000128 memset
00001850 g     F .text	00000220 main
0000eb3c g     F .text	00000008 alt_avalon_dma_rx_ioctl
00012772 g     O .rwdata	00000001 R13_SERIAL_PORT_PAD_CONTROL_REGISTERS_IC_1_Default
00012834 g     O .bss	00000004 alt_envp
00012824 g     O .bss	00000004 __malloc_max_total_mem
00011430 g     O .rwdata	0000009c uart_0
0000ed7c g     F .text	00000008 altera_avalon_fifo_read_level
0000aec4 g     F .text	00000018 __swbuf
00012760 g     O .rwdata	00000002 R4_DELAY_IC_1_Default
00000c54 g     F .text	00000048 read_status_register
00009064 g     F .text	00000008 __sclose
01fff000 g       *ABS*	00000000 __alt_heap_limit
0000a9f8 g     F .text	00000014 fclose
00004394 g     F .text	00001688 _dtoa_r
00006d74 g     F .text	0000080c _malloc_r
0000b038 g     F .text	00000030 __ascii_wctomb
000127b8 g     O .rwdata	00000004 alt_errno
0000fa60 g     F .text	00000054 alt_onchip_flash_poll_for_status_to_go_idle
03000000 g       *ABS*	00000000 __alt_mem_intel_generic_serial_flash_interface_top_0_avl_mem
0001276c g     O .rwdata	00000003 R9_ADC_CONTROL_REGISTERS_IC_1_Default
00006954 g     F .text	000000c4 _fwalk
00000f54 g     F .text	00000050 clear_status_register
0000bb74 g     F .text	00000084 .hidden __divsi3
00006064 g     F .text	00000124 _malloc_trim_r
0000f82c g     F .text	00000234 altera_onchip_flash_init
00012840 g     O .bss	00000004 alt_vic_dev_list
0000906c g     F .text	000000dc strcmp
00010a7c g     O .rwdata	00000010 pwm_counter
0000cebc g     F .text	00000088 .hidden __nedf2
0000e69c g     F .text	0000002c alt_irq_init
00000ebc g     F .text	00000048 read_config_register
00012784 g     O .rwdata	00000002 R32_CLOCK_ENABLE_REGISTERS_IC_1_Default
000106a0 g     O .rodata	00000100 .hidden __clz_tab
00012818 g     O .bss	00000004 _PathLocale
0000a790 g     F .text	00000060 _write_r
00006b94 g     F .text	00000018 setlocale
00012773 g     O .rwdata	00000002 R14_COMMUNICATION_PORT_PAD_CONTROL_REGISTERS_IC_1_Default
00012794 g     O .rwdata	00000004 _impure_ptr
0001283c g     O .bss	00000004 alt_argc
00005a1c g     F .text	0000021c __sflush_r
00006b80 g     F .text	00000008 __locale_cjk_lang
00001048 g     F .text	00000054 read_memory_3byte
00012783 g     O .rwdata	00000001 R26_SAMPLE_RATE_SETTING_IC_1_Default
000016f0 g     F .text	000000d8 initDMA
0000fea8 g     F .text	000000b0 alt_vic_irq_init
0000842c g     F .text	00000064 __ulp
0000604c g     F .text	00000018 __fp_unlock_all
0000fc58 g     F .text	000001b4 alt_onchip_flash_write_block
00006bac g     F .text	0000000c localeconv
00012776 g     O .rwdata	00000001 R21_DSP_ENABLE_REGISTER_IC_1_Default
00000000 g       *ABS*	00000000 __alt_mem_new_sdram_controller_0
0000109c g     F .text	00000054 cypress_four_byte_fast_read
000127e0 g     O .bss	00000004 R23_GPIO_REGISTERS_IC_1_Default
0000eeec g     F .text	0000001c altera_avalon_fifo_write_other_info
0000ff58 g     F .text	00000078 alt_ic_isr_register
000127d8 g       *ABS*	00000000 _edata
0000f6a8 g     F .text	00000184 alt_onchip_flash_write
00015c78 g       *ABS*	00000000 _end
00010170 g     F .text	00000050 alt_flash_open_dev
0000aa0c g     F .text	00000164 __fputwc
0001277e g     O .rwdata	00000005 R25_WATCHDOG_REGISTERS_IC_1_Default
00000fa4 g     F .text	00000050 erase_sector_cypress
00008f8c g     F .text	0000007c __swrite
000127a0 g     O .rwdata	00000004 __malloc_trim_threshold
00006b74 g     F .text	0000000c __locale_msgcharset
00006a18 g     F .text	000000c4 _fwalk_reent
00008230 g     F .text	000001fc __mdiff
000101c0 g     F .text	00000014 alt_flash_close_dev
0000bbf8 g     F .text	00000074 .hidden __modsi3
0000ed54 g     F .text	0000000c altera_avalon_fifo_read_ienable
01fff000 g       *ABS*	00000000 __alt_data_end
00006028 g     F .text	00000004 __sfp_lock_release
00000d34 g     F .text	00000050 enter_4byte_addressing_mode
000127f8 g     O .bss	00000004 rx_done1
0000f5d0 g     F .text	00000024 altera_avalon_uart_close
04100000 g       .entry	00000000 _exit
0000ffd0 g     F .text	00000094 alt_alarm_start
00012759 g     O .rwdata	00000001 R2_CLKCTRLREGISTER_IC_1_Default
0000ed60 g     F .text	00000008 altera_avalon_fifo_read_almostfull
00006bb8 g     F .text	000001bc __smakebuf_r
00001cd8 g     F .text	00000098 strlen
00001200 g     F .text	00000050 write_register_for_sector_unprotect_cypress
0000eea8 g     F .text	00000028 altera_avalon_read_fifo
0000cf44 g     F .text	000000dc .hidden __gedf2
000127a4 g     O .rwdata	00000004 __wctomb
00009244 g     F .text	00000018 __sprint_r
000000b4 g     F .text	00000080 i2c_setup
00012804 g     O .bss	00000004 pwm_interval1
00003f68 g     F .text	0000001c __vfprintf_internal
00012814 g     O .bss	00000004 txchan
0000b068 g     F .text	0000005c _wctomb_r
0000eb44 g     F .text	000000a8 alt_avalon_dma_prepare
00000878 g     F .text	00000340 default_download_IC_1
0000d82c g     F .text	000008fc .hidden __subdf3
000127a8 g     O .rwdata	00000008 alt_dma_rxchan_list
00007c64 g     F .text	000000b0 __lo0bits
0000edd8 g     F .text	0000001c altera_avalon_fifo_write_almostempty
000127d0 g     O .rwdata	00000008 alt_alarm_list
00000bb8 g     F .text	00000054 msleep
0000af78 g     F .text	000000c0 wcrtomb
00012758 g     O .rwdata	00000001 R0_SAMPLE_RATE_SETTING_IC_1_Default
0000e390 g     F .text	00000040 close
0000eb34 g     F .text	00000008 alt_avalon_dma_tx_ioctl
0000ab94 g     F .text	00000080 fputwc
000001dc g     F .text	000000b0 i2c_write_byte
0000602c g     F .text	00000004 __sinit_lock_acquire
000127e8 g     O .bss	00000001 R31_SERIAL_PORT_SAMPLE_RATE_SETTING_IC_1_Default
000079d8 g     F .text	00000120 __multadd
000079b0 g     F .text	00000028 _Bfree
00012787 g     O .rwdata	00000001 R36_DSP_RUN_REGISTER_IC_1_Default



Disassembly of section .text:

00000020 <_start>:
     * writing zero to SSTATUS register and executing an ERET instruction
     * to set STATUS.CRS to 0.
     */
    
    /* Get the current register set number (STATUS.CRS). */
    rdctl r2, status
      20:	0005303a 	rdctl	r2,status
    andi r2, r2, NIOS2_STATUS_CRS_MSK
      24:	10bf000c 	andi	r2,r2,64512
    
    /* Skip switching register set if STATUS.CRS is 0.  */
    beq r2, zero, 0f
      28:	10000426 	beq	r2,zero,3c <_start+0x1c>

    /* Set SSTATUS to 0 to get to set SSTATUS.PRS to 0. */
    .set nobreak
    movui sstatus, 0
      2c:	07800014 	movui	sstatus,0
    .set break

    /* Switch to register set 0 and jump to label. */
    movhi ea, %hi(0f)
      30:	07400034 	movhi	ea,0
    ori ea, ea, %lo(0f)
      34:	ef400f14 	ori	ea,ea,60
    eret
      38:	ef80083a 	eret

    /* Assume the data cache size is always a power of two. */
#if NIOS2_DCACHE_SIZE > 0x8000
    movhi r2, %hi(NIOS2_DCACHE_SIZE)
#else
    movui r2, NIOS2_DCACHE_SIZE
      3c:	00820014 	movui	r2,2048
#endif

0:
    initd 0(r2)
      40:	10000033 	initd	0(r2)
#ifdef NIOS2_ECC_PRESENT
    addi r2, r2, -4
#else
    addi r2, r2, -NIOS2_DCACHE_LINE_SIZE
      44:	10bff804 	addi	r2,r2,-32
#endif
    bgt r2, zero, 0b
      48:	00bffd16 	blt	zero,r2,40 <__reset+0xfbf00040>

    /*
     * Now that the caches are initialized, set up the stack pointer and global pointer.
     * The values provided by the linker are assumed to be correctly aligned.
     */
    movhi sp, %hi(__alt_stack_pointer)
      4c:	06c07ff4 	movhi	sp,511
    ori sp, sp, %lo(__alt_stack_pointer)
      50:	defc0014 	ori	sp,sp,61440
    movhi gp, %hi(_gp)
      54:	06800074 	movhi	gp,1
    ori gp, gp, %lo(_gp)
      58:	d6a9d614 	ori	gp,gp,42840
    /* 
     * Setup registers in shadow register sets
     * from 1 to NIOS2_NUM_OF_SHADOW_REG_SETS.
     */

    movui r2, 0     /* Contains value written into STATUS */
      5c:	00800014 	movui	r2,0
    movui r3, NIOS2_NUM_OF_SHADOW_REG_SETS  /* counter */
      60:	00c001d4 	movui	r3,7
    movhi r4, 1     /* Constant to increment STATUS.PRS */
      64:	01000074 	movhi	r4,1
    
.Linitialize_shadow_registers:
    /* Increment STATUS.PRS */
    add r2, r2, r4
      68:	1105883a 	add	r2,r2,r4
    wrctl status, r2
      6c:	1001703a 	wrctl	status,r2

    /* Clear r0 in the shadow register set (not done by hardware) */
    wrprs r0, r0
      70:	0000a03a 	wrprs	zero,zero

    /* Write the GP in previous register set */
    wrprs gp, gp
      74:	d034a03a 	wrprs	gp,gp
     * Only write the SP in previous register set
     * if using the separate exception stack. For normal case (single stack),
     * funnel code would read the SP from previous register set with a RDPRS.
     */
#ifdef ALT_INTERRUPT_STACK
    movhi et, %hiadj(__alt_interrupt_stack_pointer)
      78:	06008034 	movhi	et,512
    addi  et, et, %lo(__alt_interrupt_stack_pointer)
      7c:	c6000004 	addi	et,et,0
    wrprs sp, et
      80:	c036a03a 	wrprs	sp,et
    wrprs r30, r0    /* ba */
    wrprs r31, r0    /* ra */
#endif /* NIOS2_ECC_PRESENT */

    /* Decrement shadow register set counter */
    addi r3, r3, -1
      84:	18ffffc4 	addi	r3,r3,-1

    /* Done if index is 0. */
    bne r3, zero, .Linitialize_shadow_registers
      88:	183ff71e 	bne	r3,zero,68 <__reset+0xfbf00068>
 */
#ifndef ALT_SIM_OPTIMIZE
    /* Log that the BSS is about to be cleared. */
    ALT_LOG_PUTS(alt_log_msg_bss)

    movhi r2, %hi(__bss_start)
      8c:	00800074 	movhi	r2,1
    ori r2, r2, %lo(__bss_start)
      90:	1089f614 	ori	r2,r2,10200

    movhi r3, %hi(__bss_end)
      94:	00c00074 	movhi	r3,1
    ori r3, r3, %lo(__bss_end)
      98:	18d71e14 	ori	r3,r3,23672

    beq r2, r3, 1f
      9c:	10c00326 	beq	r2,r3,ac <_start+0x8c>

0:
    stw zero, (r2)
      a0:	10000015 	stw	zero,0(r2)
    addi r2, r2, 4
      a4:	10800104 	addi	r2,r2,4
    bltu r2, r3, 0b
      a8:	10fffd36 	bltu	r2,r3,a0 <__reset+0xfbf000a0>

    /* Log that alt_main is about to be called. */
    ALT_LOG_PUTS(alt_log_msg_alt_main)

    /* Call the C entry point. It should never return. */
    call alt_main
      ac:	000e5480 	call	e548 <alt_main>

000000b0 <alt_after_alt_main>:

    /* Wait in infinite loop in case alt_main does return. */
alt_after_alt_main:
    br alt_after_alt_main
      b0:	003fff06 	br	b0 <__reset+0xfbf000b0>

000000b4 <i2c_setup>:
#include "SigmaStudioFW.h"

uint8_t i2c_write_data[5120 + 2] = {0x00};

void i2c_setup(uint8_t per_h_reg, uint8_t per_l_reg)
{
      b4:	defffd04 	addi	sp,sp,-12
      b8:	df000215 	stw	fp,8(sp)
      bc:	df000204 	addi	fp,sp,8
      c0:	2007883a 	mov	r3,r4
      c4:	2805883a 	mov	r2,r5
      c8:	e0fffe05 	stb	r3,-8(fp)
      cc:	e0bfff05 	stb	r2,-4(fp)
	//IOWR_ALTERA_AVALON_PIO_DATA(I2C_CTR, 0x00);
	IOWR(I2C_BASEADDR, I2C_CTR, 0x00);
      d0:	0007883a 	mov	r3,zero
      d4:	00810834 	movhi	r2,1056
      d8:	10841204 	addi	r2,r2,4168
      dc:	10c00035 	stwio	r3,0(r2)
	IOWR(I2C_BASEADDR, I2C_CR, 0x01);
      e0:	00c00044 	movi	r3,1
      e4:	00810834 	movhi	r2,1056
      e8:	10841404 	addi	r2,r2,4176
      ec:	10c00035 	stwio	r3,0(r2)

	//IOWR_ALTERA_AVALON_PIO_DATA(I2C_PRERL, per_l_reg);
	//IOWR_ALTERA_AVALON_PIO_DATA(I2C_PRERH, per_h_reg);
	//IOWR_ALTERA_AVALON_PIO_DATA(I2C_CTR,   0x80);

	IOWR(I2C_BASEADDR, I2C_PRERL, per_l_reg);
      f0:	e0ffff03 	ldbu	r3,-4(fp)
      f4:	00810834 	movhi	r2,1056
      f8:	10841004 	addi	r2,r2,4160
      fc:	10c00035 	stwio	r3,0(r2)
	IOWR(I2C_BASEADDR, I2C_PRERH, per_h_reg);
     100:	e0fffe03 	ldbu	r3,-8(fp)
     104:	00810834 	movhi	r2,1056
     108:	10841104 	addi	r2,r2,4164
     10c:	10c00035 	stwio	r3,0(r2)
	IOWR(I2C_BASEADDR, I2C_CTR,   0x80);
     110:	00c02004 	movi	r3,128
     114:	00810834 	movhi	r2,1056
     118:	10841204 	addi	r2,r2,4168
     11c:	10c00035 	stwio	r3,0(r2)
}
     120:	0001883a 	nop
     124:	e037883a 	mov	sp,fp
     128:	df000017 	ldw	fp,0(sp)
     12c:	dec00104 	addi	sp,sp,4
     130:	f800283a 	ret

00000134 <i2c_start>:

bool i2c_start(uint8_t devAddress, uint8_t rw)
{
     134:	defffc04 	addi	sp,sp,-16
     138:	dfc00315 	stw	ra,12(sp)
     13c:	df000215 	stw	fp,8(sp)
     140:	df000204 	addi	fp,sp,8
     144:	2007883a 	mov	r3,r4
     148:	2805883a 	mov	r2,r5
     14c:	e0fffe05 	stb	r3,-8(fp)
     150:	e0bfff05 	stb	r2,-4(fp)
	IOWR(I2C_BASEADDR, I2C_TXR, (devAddress << 0) + (rw & 0x01));
     154:	e0fffe03 	ldbu	r3,-8(fp)
     158:	e0bfff03 	ldbu	r2,-4(fp)
     15c:	1080004c 	andi	r2,r2,1
     160:	1887883a 	add	r3,r3,r2
     164:	00810834 	movhi	r2,1056
     168:	10841304 	addi	r2,r2,4172
     16c:	10c00035 	stwio	r3,0(r2)
	IOWR(I2C_BASEADDR, I2C_CR, 0x90);
     170:	00c02404 	movi	r3,144
     174:	00810834 	movhi	r2,1056
     178:	10841404 	addi	r2,r2,4176
     17c:	10c00035 	stwio	r3,0(r2)

	while (IORD(I2C_BASEADDR, I2C_SR) & 0x02)
     180:	00000206 	br	18c <i2c_start+0x58>
	{
		usleep(10);
     184:	01000284 	movi	r4,10
     188:	000e6380 	call	e638 <usleep>
bool i2c_start(uint8_t devAddress, uint8_t rw)
{
	IOWR(I2C_BASEADDR, I2C_TXR, (devAddress << 0) + (rw & 0x01));
	IOWR(I2C_BASEADDR, I2C_CR, 0x90);

	while (IORD(I2C_BASEADDR, I2C_SR) & 0x02)
     18c:	00810834 	movhi	r2,1056
     190:	10841404 	addi	r2,r2,4176
     194:	10800037 	ldwio	r2,0(r2)
     198:	1080008c 	andi	r2,r2,2
     19c:	103ff91e 	bne	r2,zero,184 <__reset+0xfbf00184>
	{
		usleep(10);
	}

	usleep(10);
     1a0:	01000284 	movi	r4,10
     1a4:	000e6380 	call	e638 <usleep>

	if (IORD(I2C_BASEADDR, I2C_SR) & 0x80)
     1a8:	00810834 	movhi	r2,1056
     1ac:	10841404 	addi	r2,r2,4176
     1b0:	10800037 	ldwio	r2,0(r2)
     1b4:	1080200c 	andi	r2,r2,128
     1b8:	10000226 	beq	r2,zero,1c4 <i2c_start+0x90>
	{
		return false;
     1bc:	0005883a 	mov	r2,zero
     1c0:	00000106 	br	1c8 <i2c_start+0x94>
	}
	else
	{
		return true;
     1c4:	00800044 	movi	r2,1
	}
}
     1c8:	e037883a 	mov	sp,fp
     1cc:	dfc00117 	ldw	ra,4(sp)
     1d0:	df000017 	ldw	fp,0(sp)
     1d4:	dec00204 	addi	sp,sp,8
     1d8:	f800283a 	ret

000001dc <i2c_write_byte>:

bool i2c_write_byte(uint8_t data)
{
     1dc:	defffd04 	addi	sp,sp,-12
     1e0:	dfc00215 	stw	ra,8(sp)
     1e4:	df000115 	stw	fp,4(sp)
     1e8:	df000104 	addi	fp,sp,4
     1ec:	2005883a 	mov	r2,r4
     1f0:	e0bfff05 	stb	r2,-4(fp)
	IOWR(I2C_BASEADDR, I2C_TXR, data);
     1f4:	e0ffff03 	ldbu	r3,-4(fp)
     1f8:	00810834 	movhi	r2,1056
     1fc:	10841304 	addi	r2,r2,4172
     200:	10c00035 	stwio	r3,0(r2)
	IOWR(I2C_BASEADDR, I2C_CR,  0x10); //wr
     204:	00c00404 	movi	r3,16
     208:	00810834 	movhi	r2,1056
     20c:	10841404 	addi	r2,r2,4176
     210:	10c00035 	stwio	r3,0(r2)

	while (IORD(I2C_BASEADDR, I2C_SR) & 0x02)
     214:	00000206 	br	220 <i2c_write_byte+0x44>
	{
		usleep(10);
     218:	01000284 	movi	r4,10
     21c:	000e6380 	call	e638 <usleep>
bool i2c_write_byte(uint8_t data)
{
	IOWR(I2C_BASEADDR, I2C_TXR, data);
	IOWR(I2C_BASEADDR, I2C_CR,  0x10); //wr

	while (IORD(I2C_BASEADDR, I2C_SR) & 0x02)
     220:	00810834 	movhi	r2,1056
     224:	10841404 	addi	r2,r2,4176
     228:	10800037 	ldwio	r2,0(r2)
     22c:	1080008c 	andi	r2,r2,2
     230:	103ff91e 	bne	r2,zero,218 <__reset+0xfbf00218>
	{
		usleep(10);
	}

	usleep(10);
     234:	01000284 	movi	r4,10
     238:	000e6380 	call	e638 <usleep>

	if (IORD(I2C_BASEADDR, I2C_SR) & 0x80)
     23c:	00810834 	movhi	r2,1056
     240:	10841404 	addi	r2,r2,4176
     244:	10800037 	ldwio	r2,0(r2)
     248:	1080200c 	andi	r2,r2,128
     24c:	10000926 	beq	r2,zero,274 <i2c_write_byte+0x98>
	{
		printf("I2C_SR %d\n", IORD(I2C_BASEADDR, I2C_SR));
     250:	00810834 	movhi	r2,1056
     254:	10841404 	addi	r2,r2,4176
     258:	10800037 	ldwio	r2,0(r2)
     25c:	100b883a 	mov	r5,r2
     260:	01000074 	movhi	r4,1
     264:	2100d304 	addi	r4,r4,844
     268:	0001bc80 	call	1bc8 <printf>
		return false;
     26c:	0005883a 	mov	r2,zero
     270:	00000106 	br	278 <i2c_write_byte+0x9c>
	}
	else
	{
		return true;
     274:	00800044 	movi	r2,1
	}
}
     278:	e037883a 	mov	sp,fp
     27c:	dfc00117 	ldw	ra,4(sp)
     280:	df000017 	ldw	fp,0(sp)
     284:	dec00204 	addi	sp,sp,8
     288:	f800283a 	ret

0000028c <i2c_write_byte_stop>:

bool i2c_write_byte_stop(uint8_t data)
{
     28c:	defffd04 	addi	sp,sp,-12
     290:	dfc00215 	stw	ra,8(sp)
     294:	df000115 	stw	fp,4(sp)
     298:	df000104 	addi	fp,sp,4
     29c:	2005883a 	mov	r2,r4
     2a0:	e0bfff05 	stb	r2,-4(fp)
	IOWR(I2C_BASEADDR, I2C_TXR, data);
     2a4:	e0ffff03 	ldbu	r3,-4(fp)
     2a8:	00810834 	movhi	r2,1056
     2ac:	10841304 	addi	r2,r2,4172
     2b0:	10c00035 	stwio	r3,0(r2)
	IOWR(I2C_BASEADDR, I2C_CR, 0x50); //stop
     2b4:	00c01404 	movi	r3,80
     2b8:	00810834 	movhi	r2,1056
     2bc:	10841404 	addi	r2,r2,4176
     2c0:	10c00035 	stwio	r3,0(r2)

	while (IORD(I2C_BASEADDR, I2C_SR) & 0x02)
     2c4:	00000206 	br	2d0 <i2c_write_byte_stop+0x44>
	{
		usleep(10);
     2c8:	01000284 	movi	r4,10
     2cc:	000e6380 	call	e638 <usleep>
bool i2c_write_byte_stop(uint8_t data)
{
	IOWR(I2C_BASEADDR, I2C_TXR, data);
	IOWR(I2C_BASEADDR, I2C_CR, 0x50); //stop

	while (IORD(I2C_BASEADDR, I2C_SR) & 0x02)
     2d0:	00810834 	movhi	r2,1056
     2d4:	10841404 	addi	r2,r2,4176
     2d8:	10800037 	ldwio	r2,0(r2)
     2dc:	1080008c 	andi	r2,r2,2
     2e0:	103ff91e 	bne	r2,zero,2c8 <__reset+0xfbf002c8>
	{
		usleep(10);
	}

	usleep(10);
     2e4:	01000284 	movi	r4,10
     2e8:	000e6380 	call	e638 <usleep>

	if (IORD(I2C_BASEADDR, I2C_SR) & 0x80)
     2ec:	00810834 	movhi	r2,1056
     2f0:	10841404 	addi	r2,r2,4176
     2f4:	10800037 	ldwio	r2,0(r2)
     2f8:	1080200c 	andi	r2,r2,128
     2fc:	10000226 	beq	r2,zero,308 <i2c_write_byte_stop+0x7c>
	{
		return false;
     300:	0005883a 	mov	r2,zero
     304:	00000106 	br	30c <i2c_write_byte_stop+0x80>
	}
	else
	{
		return true;
     308:	00800044 	movi	r2,1
	}
}
     30c:	e037883a 	mov	sp,fp
     310:	dfc00117 	ldw	ra,4(sp)
     314:	df000017 	ldw	fp,0(sp)
     318:	dec00204 	addi	sp,sp,8
     31c:	f800283a 	ret

00000320 <i2c_multiple_write>:

bool i2c_multiple_write(uint8_t devAddress, uint16_t controlAddress, uint8_t data[], uint16_t len)
{
     320:	defff904 	addi	sp,sp,-28
     324:	dfc00615 	stw	ra,24(sp)
     328:	df000515 	stw	fp,20(sp)
     32c:	df000504 	addi	fp,sp,20
     330:	2807883a 	mov	r3,r5
     334:	e1bffe15 	stw	r6,-8(fp)
     338:	3805883a 	mov	r2,r7
     33c:	e13ffc05 	stb	r4,-16(fp)
     340:	e0fffd0d 	sth	r3,-12(fp)
     344:	e0bfff0d 	sth	r2,-4(fp)
	if (!i2c_start(devAddress, 0x00))
     348:	e0bffc03 	ldbu	r2,-16(fp)
     34c:	000b883a 	mov	r5,zero
     350:	1009883a 	mov	r4,r2
     354:	00001340 	call	134 <i2c_start>
     358:	1080005c 	xori	r2,r2,1
     35c:	10803fcc 	andi	r2,r2,255
     360:	10000526 	beq	r2,zero,378 <i2c_multiple_write+0x58>
	{
		printf("I2C start failed.\n");
     364:	01000074 	movhi	r4,1
     368:	2100d604 	addi	r4,r4,856
     36c:	0001cc40 	call	1cc4 <puts>
		return false;
     370:	0005883a 	mov	r2,zero
     374:	00004b06 	br	4a4 <i2c_multiple_write+0x184>
	}

	usleep(100);
     378:	01001904 	movi	r4,100
     37c:	000e6380 	call	e638 <usleep>

	if (!i2c_write_byte((controlAddress >> 8) & 0xFF))
     380:	e0bffd0b 	ldhu	r2,-12(fp)
     384:	1004d23a 	srli	r2,r2,8
     388:	10803fcc 	andi	r2,r2,255
     38c:	1009883a 	mov	r4,r2
     390:	00001dc0 	call	1dc <i2c_write_byte>
     394:	1080005c 	xori	r2,r2,1
     398:	10803fcc 	andi	r2,r2,255
     39c:	10000326 	beq	r2,zero,3ac <i2c_multiple_write+0x8c>
	{
		printf("I2C caddrH write failed.\n");
     3a0:	01000074 	movhi	r4,1
     3a4:	2100db04 	addi	r4,r4,876
     3a8:	0001cc40 	call	1cc4 <puts>
		//return false;
	}

	usleep(100);
     3ac:	01001904 	movi	r4,100
     3b0:	000e6380 	call	e638 <usleep>

	if (!i2c_write_byte(controlAddress & 0xFF))
     3b4:	e0bffd0b 	ldhu	r2,-12(fp)
     3b8:	10803fcc 	andi	r2,r2,255
     3bc:	1009883a 	mov	r4,r2
     3c0:	00001dc0 	call	1dc <i2c_write_byte>
     3c4:	1080005c 	xori	r2,r2,1
     3c8:	10803fcc 	andi	r2,r2,255
     3cc:	10000526 	beq	r2,zero,3e4 <i2c_multiple_write+0xc4>
	{
		printf("I2C caddrL write failed.\n");
     3d0:	01000074 	movhi	r4,1
     3d4:	2100e204 	addi	r4,r4,904
     3d8:	0001cc40 	call	1cc4 <puts>
		return false;
     3dc:	0005883a 	mov	r2,zero
     3e0:	00003006 	br	4a4 <i2c_multiple_write+0x184>
	}

	usleep(100);
     3e4:	01001904 	movi	r4,100
     3e8:	000e6380 	call	e638 <usleep>

	for (int i = 0; i < len; i++)
     3ec:	e03ffb15 	stw	zero,-20(fp)
     3f0:	00002806 	br	494 <i2c_multiple_write+0x174>
	{
		if (i == len - 1)
     3f4:	e0bfff0b 	ldhu	r2,-4(fp)
     3f8:	10ffffc4 	addi	r3,r2,-1
     3fc:	e0bffb17 	ldw	r2,-20(fp)
     400:	18800f1e 	bne	r3,r2,440 <i2c_multiple_write+0x120>
		{
			if (!i2c_write_byte_stop(data[i]))
     404:	e0bffb17 	ldw	r2,-20(fp)
     408:	e0fffe17 	ldw	r3,-8(fp)
     40c:	1885883a 	add	r2,r3,r2
     410:	10800003 	ldbu	r2,0(r2)
     414:	10803fcc 	andi	r2,r2,255
     418:	1009883a 	mov	r4,r2
     41c:	000028c0 	call	28c <i2c_write_byte_stop>
     420:	1080005c 	xori	r2,r2,1
     424:	10803fcc 	andi	r2,r2,255
     428:	10001526 	beq	r2,zero,480 <i2c_multiple_write+0x160>
			{
				printf("I2C stop failed.\n");
     42c:	01000074 	movhi	r4,1
     430:	2100e904 	addi	r4,r4,932
     434:	0001cc40 	call	1cc4 <puts>
				return false;
     438:	0005883a 	mov	r2,zero
     43c:	00001906 	br	4a4 <i2c_multiple_write+0x184>
			}
		}
		else
		{
			if (!i2c_write_byte(data[i]))
     440:	e0bffb17 	ldw	r2,-20(fp)
     444:	e0fffe17 	ldw	r3,-8(fp)
     448:	1885883a 	add	r2,r3,r2
     44c:	10800003 	ldbu	r2,0(r2)
     450:	10803fcc 	andi	r2,r2,255
     454:	1009883a 	mov	r4,r2
     458:	00001dc0 	call	1dc <i2c_write_byte>
     45c:	1080005c 	xori	r2,r2,1
     460:	10803fcc 	andi	r2,r2,255
     464:	10000626 	beq	r2,zero,480 <i2c_multiple_write+0x160>
			{
				printf("I2C data[%d] write failed.\n", i);
     468:	e17ffb17 	ldw	r5,-20(fp)
     46c:	01000074 	movhi	r4,1
     470:	2100ee04 	addi	r4,r4,952
     474:	0001bc80 	call	1bc8 <printf>
				return false;
     478:	0005883a 	mov	r2,zero
     47c:	00000906 	br	4a4 <i2c_multiple_write+0x184>
			}
		}

		usleep(100);
     480:	01001904 	movi	r4,100
     484:	000e6380 	call	e638 <usleep>
		return false;
	}

	usleep(100);

	for (int i = 0; i < len; i++)
     488:	e0bffb17 	ldw	r2,-20(fp)
     48c:	10800044 	addi	r2,r2,1
     490:	e0bffb15 	stw	r2,-20(fp)
     494:	e0bfff0b 	ldhu	r2,-4(fp)
     498:	e0fffb17 	ldw	r3,-20(fp)
     49c:	18bfd516 	blt	r3,r2,3f4 <__reset+0xfbf003f4>
		}

		usleep(100);
	}

	return true;
     4a0:	00800044 	movi	r2,1
}
     4a4:	e037883a 	mov	sp,fp
     4a8:	dfc00117 	ldw	ra,4(sp)
     4ac:	df000017 	ldw	fp,0(sp)
     4b0:	dec00204 	addi	sp,sp,8
     4b4:	f800283a 	ret

000004b8 <SIGMA_WRITE_REGISTER_BLOCK>:

bool SIGMA_WRITE_REGISTER_BLOCK(uint8_t devAddress, uint16_t address, uint16_t length, ADI_REG_TYPE *pData)
{
     4b8:	defff904 	addi	sp,sp,-28
     4bc:	dfc00615 	stw	ra,24(sp)
     4c0:	df000515 	stw	fp,20(sp)
     4c4:	df000504 	addi	fp,sp,20
     4c8:	2807883a 	mov	r3,r5
     4cc:	3005883a 	mov	r2,r6
     4d0:	e1ffff15 	stw	r7,-4(fp)
     4d4:	e13ffc05 	stb	r4,-16(fp)
     4d8:	e0fffd0d 	sth	r3,-12(fp)
     4dc:	e0bffe0d 	sth	r2,-8(fp)

  ret = I2CSPM_Transfer(I2C0, &seq);
#endif

  //ret = i2c_multiple_write(PIO_2_BASE, PIO_3_BASE, devAddress, address, pData, length);
  ret = i2c_multiple_write(devAddress, address, pData, length);
     4e0:	e0bffc03 	ldbu	r2,-16(fp)
     4e4:	e0fffd0b 	ldhu	r3,-12(fp)
     4e8:	e13ffe0b 	ldhu	r4,-8(fp)
     4ec:	200f883a 	mov	r7,r4
     4f0:	e1bfff17 	ldw	r6,-4(fp)
     4f4:	180b883a 	mov	r5,r3
     4f8:	1009883a 	mov	r4,r2
     4fc:	00003200 	call	320 <i2c_multiple_write>
     500:	e0bffb05 	stb	r2,-20(fp)

  usleep(1000);
     504:	0100fa04 	movi	r4,1000
     508:	000e6380 	call	e638 <usleep>

  //if (ret != i2cTransferDone)
  if (!ret)
     50c:	e0bffb03 	ldbu	r2,-20(fp)
     510:	1080005c 	xori	r2,r2,1
     514:	10803fcc 	andi	r2,r2,255
     518:	10000226 	beq	r2,zero,524 <SIGMA_WRITE_REGISTER_BLOCK+0x6c>
  {
    //return((uint32_t) ret);
	  return false;
     51c:	0005883a 	mov	r2,zero
     520:	00000106 	br	528 <SIGMA_WRITE_REGISTER_BLOCK+0x70>
  }

  //return((uint32_t) 0);
  return true;
     524:	00800044 	movi	r2,1
}
     528:	e037883a 	mov	sp,fp
     52c:	dfc00117 	ldw	ra,4(sp)
     530:	df000017 	ldw	fp,0(sp)
     534:	dec00204 	addi	sp,sp,8
     538:	f800283a 	ret

0000053c <SIGMA_WRITE_REGISTER_CONTROL>:

bool SIGMA_WRITE_REGISTER_CONTROL(uint8_t devAddress, uint16_t address, uint16_t length, ADI_REG_U8 *pData)
{
     53c:	defff904 	addi	sp,sp,-28
     540:	dfc00615 	stw	ra,24(sp)
     544:	df000515 	stw	fp,20(sp)
     548:	df000504 	addi	fp,sp,20
     54c:	2807883a 	mov	r3,r5
     550:	3005883a 	mov	r2,r6
     554:	e1ffff15 	stw	r7,-4(fp)
     558:	e13ffc05 	stb	r4,-16(fp)
     55c:	e0fffd0d 	sth	r3,-12(fp)
     560:	e0bffe0d 	sth	r2,-8(fp)

  ret = I2CSPM_Transfer(I2C0, &seq);
#endif

  //ret = i2c_multiple_write(PIO_2_BASE, PIO_3_BASE, devAddress, address, pData, length);
  ret = i2c_multiple_write(devAddress, address, pData, length);
     564:	e0bffc03 	ldbu	r2,-16(fp)
     568:	e0fffd0b 	ldhu	r3,-12(fp)
     56c:	e13ffe0b 	ldhu	r4,-8(fp)
     570:	200f883a 	mov	r7,r4
     574:	e1bfff17 	ldw	r6,-4(fp)
     578:	180b883a 	mov	r5,r3
     57c:	1009883a 	mov	r4,r2
     580:	00003200 	call	320 <i2c_multiple_write>
     584:	e0bffb05 	stb	r2,-20(fp)

  //if (ret != i2cTransferDone)
  if (!ret)
     588:	e0bffb03 	ldbu	r2,-20(fp)
     58c:	1080005c 	xori	r2,r2,1
     590:	10803fcc 	andi	r2,r2,255
     594:	10000226 	beq	r2,zero,5a0 <SIGMA_WRITE_REGISTER_CONTROL+0x64>
  {
    //return((uint32_t) ret);
	  return false;
     598:	0005883a 	mov	r2,zero
     59c:	00000106 	br	5a4 <SIGMA_WRITE_REGISTER_CONTROL+0x68>
  }

  //free(i2c_write_data);

  //return((uint32_t) 0);
  return true;
     5a0:	00800044 	movi	r2,1
}
     5a4:	e037883a 	mov	sp,fp
     5a8:	dfc00117 	ldw	ra,4(sp)
     5ac:	df000017 	ldw	fp,0(sp)
     5b0:	dec00204 	addi	sp,sp,8
     5b4:	f800283a 	ret

000005b8 <SIGMA_SAFELOAD_WRITE_ADDR>:

bool SIGMA_SAFELOAD_WRITE_ADDR(uint8_t devAddress, uint16_t addrAddress, uint16_t address)
{
     5b8:	defffa04 	addi	sp,sp,-24
     5bc:	dfc00515 	stw	ra,20(sp)
     5c0:	df000415 	stw	fp,16(sp)
     5c4:	df000404 	addi	fp,sp,16
     5c8:	2807883a 	mov	r3,r5
     5cc:	3005883a 	mov	r2,r6
     5d0:	e13ffd05 	stb	r4,-12(fp)
     5d4:	e0fffe0d 	sth	r3,-8(fp)
     5d8:	e0bfff0d 	sth	r2,-4(fp)
  seq.buf[1].len  = 0;

  ret = I2CSPM_Transfer(I2C0, &seq);
#endif

  wdata[0] = (address >> 8) & 0x00FF;
     5dc:	e0bfff0b 	ldhu	r2,-4(fp)
     5e0:	1004d23a 	srli	r2,r2,8
     5e4:	e0bffc45 	stb	r2,-15(fp)
  wdata[1] = address & 0x00FF;
     5e8:	e0bfff0b 	ldhu	r2,-4(fp)
     5ec:	e0bffc85 	stb	r2,-14(fp)
  //ret = i2c_multiple_write(PIO_2_BASE, PIO_3_BASE, devAddress, address, wdata, 2);
  ret = i2c_multiple_write(devAddress, address, wdata, 2);
     5f0:	e0bffd03 	ldbu	r2,-12(fp)
     5f4:	e0ffff0b 	ldhu	r3,-4(fp)
     5f8:	e13ffc44 	addi	r4,fp,-15
     5fc:	01c00084 	movi	r7,2
     600:	200d883a 	mov	r6,r4
     604:	180b883a 	mov	r5,r3
     608:	1009883a 	mov	r4,r2
     60c:	00003200 	call	320 <i2c_multiple_write>
     610:	e0bffc05 	stb	r2,-16(fp)

  //if (ret != i2cTransferDone)
  if (!ret)
     614:	e0bffc03 	ldbu	r2,-16(fp)
     618:	1080005c 	xori	r2,r2,1
     61c:	10803fcc 	andi	r2,r2,255
     620:	10000226 	beq	r2,zero,62c <SIGMA_SAFELOAD_WRITE_ADDR+0x74>
  {
    //return((uint32_t) ret);
	  return false;
     624:	0005883a 	mov	r2,zero
     628:	00000106 	br	630 <SIGMA_SAFELOAD_WRITE_ADDR+0x78>
  }

  //return((uint32_t) 0);
  return true;
     62c:	00800044 	movi	r2,1
}
     630:	e037883a 	mov	sp,fp
     634:	dfc00117 	ldw	ra,4(sp)
     638:	df000017 	ldw	fp,0(sp)
     63c:	dec00204 	addi	sp,sp,8
     640:	f800283a 	ret

00000644 <SIGMA_SAFELOAD_WRITE_DATA>:

bool SIGMA_SAFELOAD_WRITE_DATA(uint8_t devAddress, uint16_t dataAddress, uint16_t length, ADI_REG_U8 *pData)
{
     644:	defff404 	addi	sp,sp,-48
     648:	dfc00b15 	stw	ra,44(sp)
     64c:	df000a15 	stw	fp,40(sp)
     650:	df000a04 	addi	fp,sp,40
     654:	2807883a 	mov	r3,r5
     658:	3005883a 	mov	r2,r6
     65c:	e1ffff15 	stw	r7,-4(fp)
     660:	e13ffc05 	stb	r4,-16(fp)
     664:	e0fffd0d 	sth	r3,-12(fp)
     668:	e0bffe0d 	sth	r2,-8(fp)

  ret = I2CSPM_Transfer(I2C0, &seq);
#endif

  bool ret;
  uint8_t wdata[16] = {0};
     66c:	e0bff744 	addi	r2,fp,-35
     670:	00c00404 	movi	r3,16
     674:	180d883a 	mov	r6,r3
     678:	000b883a 	mov	r5,zero
     67c:	1009883a 	mov	r4,r2
     680:	0001a700 	call	1a70 <memset>
  for (int i = 0; i < length; i++)
     684:	e03ff615 	stw	zero,-40(fp)
     688:	00000c06 	br	6bc <SIGMA_SAFELOAD_WRITE_DATA+0x78>
  {
	  wdata[i + 1] = pData[i];
     68c:	e0bff617 	ldw	r2,-40(fp)
     690:	10800044 	addi	r2,r2,1
     694:	e0fff617 	ldw	r3,-40(fp)
     698:	e13fff17 	ldw	r4,-4(fp)
     69c:	20c7883a 	add	r3,r4,r3
     6a0:	18c00003 	ldbu	r3,0(r3)
     6a4:	e13ff744 	addi	r4,fp,-35
     6a8:	2085883a 	add	r2,r4,r2
     6ac:	10c00005 	stb	r3,0(r2)
  ret = I2CSPM_Transfer(I2C0, &seq);
#endif

  bool ret;
  uint8_t wdata[16] = {0};
  for (int i = 0; i < length; i++)
     6b0:	e0bff617 	ldw	r2,-40(fp)
     6b4:	10800044 	addi	r2,r2,1
     6b8:	e0bff615 	stw	r2,-40(fp)
     6bc:	e0bffe0b 	ldhu	r2,-8(fp)
     6c0:	e0fff617 	ldw	r3,-40(fp)
     6c4:	18bff116 	blt	r3,r2,68c <__reset+0xfbf0068c>
  {
	  wdata[i + 1] = pData[i];
  }

  //ret = i2c_multiple_write(PIO_2_BASE, PIO_3_BASE, devAddress, dataAddress, wdata, length + 1);
  ret = i2c_multiple_write(devAddress, dataAddress, wdata, length + 1);
     6c8:	e0fffc03 	ldbu	r3,-16(fp)
     6cc:	e13ffd0b 	ldhu	r4,-12(fp)
     6d0:	e0bffe0b 	ldhu	r2,-8(fp)
     6d4:	10800044 	addi	r2,r2,1
     6d8:	117fffcc 	andi	r5,r2,65535
     6dc:	e0bff744 	addi	r2,fp,-35
     6e0:	280f883a 	mov	r7,r5
     6e4:	100d883a 	mov	r6,r2
     6e8:	200b883a 	mov	r5,r4
     6ec:	1809883a 	mov	r4,r3
     6f0:	00003200 	call	320 <i2c_multiple_write>
     6f4:	e0bff705 	stb	r2,-36(fp)

  //if (ret != i2cTransferDone)
  if (!ret)
     6f8:	e0bff703 	ldbu	r2,-36(fp)
     6fc:	1080005c 	xori	r2,r2,1
     700:	10803fcc 	andi	r2,r2,255
     704:	10000226 	beq	r2,zero,710 <SIGMA_SAFELOAD_WRITE_DATA+0xcc>
  {
    //return((uint32_t) ret);
	  return false;
     708:	0005883a 	mov	r2,zero
     70c:	00000106 	br	714 <SIGMA_SAFELOAD_WRITE_DATA+0xd0>
  }

  //return((uint32_t) 0);
  return true;
     710:	00800044 	movi	r2,1
}
     714:	e037883a 	mov	sp,fp
     718:	dfc00117 	ldw	ra,4(sp)
     71c:	df000017 	ldw	fp,0(sp)
     720:	dec00204 	addi	sp,sp,8
     724:	f800283a 	ret

00000728 <SIGMA_SAFELOAD_WRITE_TRANSFER_BIT>:

bool SIGMA_SAFELOAD_WRITE_TRANSFER_BIT(uint8_t devAddress)
{
     728:	defffb04 	addi	sp,sp,-20
     72c:	dfc00415 	stw	ra,16(sp)
     730:	df000315 	stw	fp,12(sp)
     734:	df000304 	addi	fp,sp,12
     738:	2005883a 	mov	r2,r4
     73c:	e0bfff05 	stb	r2,-4(fp)

  ret = I2CSPM_Transfer(I2C0, &seq);
#endif

  bool ret;
  uint16_t address = 0x081C;
     740:	00820704 	movi	r2,2076
     744:	e0bffd0d 	sth	r2,-12(fp)
  uint8_t wdata[2] = {0x00, 0x3C};
     748:	e03ffdc5 	stb	zero,-9(fp)
     74c:	00800f04 	movi	r2,60
     750:	e0bffe05 	stb	r2,-8(fp)
  //ret = i2c_multiple_write(PIO_2_BASE, PIO_3_BASE, devAddress, address, wdata, 2);
  ret = i2c_multiple_write(devAddress, address, wdata, 2);
     754:	e0bfff03 	ldbu	r2,-4(fp)
     758:	e0fffd0b 	ldhu	r3,-12(fp)
     75c:	e13ffdc4 	addi	r4,fp,-9
     760:	01c00084 	movi	r7,2
     764:	200d883a 	mov	r6,r4
     768:	180b883a 	mov	r5,r3
     76c:	1009883a 	mov	r4,r2
     770:	00003200 	call	320 <i2c_multiple_write>
     774:	e0bffd85 	stb	r2,-10(fp)

  //if (ret != i2cTransferDone)
  if (!ret)
     778:	e0bffd83 	ldbu	r2,-10(fp)
     77c:	1080005c 	xori	r2,r2,1
     780:	10803fcc 	andi	r2,r2,255
     784:	10000226 	beq	r2,zero,790 <SIGMA_SAFELOAD_WRITE_TRANSFER_BIT+0x68>
  {
    //return((uint32_t) ret);
	  return false;
     788:	0005883a 	mov	r2,zero
     78c:	00000106 	br	794 <SIGMA_SAFELOAD_WRITE_TRANSFER_BIT+0x6c>
  }

  //return((uint32_t) 0);
  return true;
     790:	00800044 	movi	r2,1
}
     794:	e037883a 	mov	sp,fp
     798:	dfc00117 	ldw	ra,4(sp)
     79c:	df000017 	ldw	fp,0(sp)
     7a0:	dec00204 	addi	sp,sp,8
     7a4:	f800283a 	ret

000007a8 <alt_dma_txchan_send>:
static ALT_INLINE int alt_dma_txchan_send (alt_dma_txchan dma, 
             const void* from, 
             alt_u32 length,
             alt_txchan_done* done, 
             void* handle)
{
     7a8:	defff904 	addi	sp,sp,-28
     7ac:	dfc00615 	stw	ra,24(sp)
     7b0:	df000515 	stw	fp,20(sp)
     7b4:	df000504 	addi	fp,sp,20
     7b8:	e13ffc15 	stw	r4,-16(fp)
     7bc:	e17ffd15 	stw	r5,-12(fp)
     7c0:	e1bffe15 	stw	r6,-8(fp)
     7c4:	e1ffff15 	stw	r7,-4(fp)
  return dma ? dma->dma_send (dma, 
        from, 
        length,
        done, 
        handle) : -ENODEV;
     7c8:	e0bffc17 	ldw	r2,-16(fp)
     7cc:	10000a26 	beq	r2,zero,7f8 <alt_dma_txchan_send+0x50>
             const void* from, 
             alt_u32 length,
             alt_txchan_done* done, 
             void* handle)
{
  return dma ? dma->dma_send (dma, 
     7d0:	e0bffc17 	ldw	r2,-16(fp)
     7d4:	10800417 	ldw	r2,16(r2)
        from, 
        length,
        done, 
        handle) : -ENODEV;
     7d8:	e0c00217 	ldw	r3,8(fp)
     7dc:	d8c00015 	stw	r3,0(sp)
     7e0:	e1ffff17 	ldw	r7,-4(fp)
     7e4:	e1bffe17 	ldw	r6,-8(fp)
     7e8:	e17ffd17 	ldw	r5,-12(fp)
     7ec:	e13ffc17 	ldw	r4,-16(fp)
     7f0:	103ee83a 	callr	r2
             const void* from, 
             alt_u32 length,
             alt_txchan_done* done, 
             void* handle)
{
  return dma ? dma->dma_send (dma, 
     7f4:	00000106 	br	7fc <alt_dma_txchan_send+0x54>
        from, 
        length,
        done, 
        handle) : -ENODEV;
     7f8:	00bffb44 	movi	r2,-19
}
     7fc:	e037883a 	mov	sp,fp
     800:	dfc00117 	ldw	ra,4(sp)
     804:	df000017 	ldw	fp,0(sp)
     808:	dec00204 	addi	sp,sp,8
     80c:	f800283a 	ret

00000810 <alt_dma_rxchan_prepare>:
static ALT_INLINE int alt_dma_rxchan_prepare (alt_dma_rxchan   dma, 
                                              void*            data,
                                              alt_u32          len,
                                              alt_rxchan_done* done,  
                                              void*            handle)
{
     810:	defff904 	addi	sp,sp,-28
     814:	dfc00615 	stw	ra,24(sp)
     818:	df000515 	stw	fp,20(sp)
     81c:	df000504 	addi	fp,sp,20
     820:	e13ffc15 	stw	r4,-16(fp)
     824:	e17ffd15 	stw	r5,-12(fp)
     828:	e1bffe15 	stw	r6,-8(fp)
     82c:	e1ffff15 	stw	r7,-4(fp)
  return dma ? dma->prepare (dma, data, len, done, handle) : -ENODEV;
     830:	e0bffc17 	ldw	r2,-16(fp)
     834:	10000a26 	beq	r2,zero,860 <alt_dma_rxchan_prepare+0x50>
     838:	e0bffc17 	ldw	r2,-16(fp)
     83c:	10800417 	ldw	r2,16(r2)
     840:	e0c00217 	ldw	r3,8(fp)
     844:	d8c00015 	stw	r3,0(sp)
     848:	e1ffff17 	ldw	r7,-4(fp)
     84c:	e1bffe17 	ldw	r6,-8(fp)
     850:	e17ffd17 	ldw	r5,-12(fp)
     854:	e13ffc17 	ldw	r4,-16(fp)
     858:	103ee83a 	callr	r2
     85c:	00000106 	br	864 <alt_dma_rxchan_prepare+0x54>
     860:	00bffb44 	movi	r2,-19
}
     864:	e037883a 	mov	sp,fp
     868:	dfc00117 	ldw	ra,4(sp)
     86c:	df000017 	ldw	fp,0(sp)
     870:	dec00204 	addi	sp,sp,8
     874:	f800283a 	ret

00000878 <default_download_IC_1>:
/*
 * Default Download
 */
#define DEFAULT_DOWNLOAD_SIZE_IC_1 39

void default_download_IC_1() {
     878:	defffe04 	addi	sp,sp,-8
     87c:	dfc00115 	stw	ra,4(sp)
     880:	df000015 	stw	fp,0(sp)
     884:	d839883a 	mov	fp,sp
	SIGMA_WRITE_REGISTER_BLOCK( DEVICE_ADDR_IC_1, REG_SAMPLE_RATE_SETTING_IC_1_ADDR, REG_SAMPLE_RATE_SETTING_IC_1_BYTE, R0_SAMPLE_RATE_SETTING_IC_1_Default );
     888:	d1e00004 	addi	r7,gp,-32768
     88c:	01800044 	movi	r6,1
     890:	01503ac4 	movi	r5,16619
     894:	01001c04 	movi	r4,112
     898:	00004b80 	call	4b8 <SIGMA_WRITE_REGISTER_BLOCK>
	SIGMA_WRITE_REGISTER_BLOCK( DEVICE_ADDR_IC_1, REG_DSP_RUN_REGISTER_IC_1_ADDR, REG_DSP_RUN_REGISTER_IC_1_BYTE, R1_DSP_RUN_REGISTER_IC_1_Default );
     89c:	d1e02004 	addi	r7,gp,-32640
     8a0:	01800044 	movi	r6,1
     8a4:	01503d84 	movi	r5,16630
     8a8:	01001c04 	movi	r4,112
     8ac:	00004b80 	call	4b8 <SIGMA_WRITE_REGISTER_BLOCK>
	SIGMA_WRITE_REGISTER_BLOCK( DEVICE_ADDR_IC_1, REG_CLKCTRLREGISTER_IC_1_ADDR, REG_CLKCTRLREGISTER_IC_1_BYTE, R2_CLKCTRLREGISTER_IC_1_Default );
     8b0:	d1e00044 	addi	r7,gp,-32767
     8b4:	01800044 	movi	r6,1
     8b8:	01500004 	movi	r5,16384
     8bc:	01001c04 	movi	r4,112
     8c0:	00004b80 	call	4b8 <SIGMA_WRITE_REGISTER_BLOCK>
	SIGMA_WRITE_REGISTER_BLOCK( DEVICE_ADDR_IC_1, REG_PLLCRLREGISTER_IC_1_ADDR, REG_PLLCRLREGISTER_IC_1_BYTE, R3_PLLCRLREGISTER_IC_1_Default );
     8c4:	d1e00084 	addi	r7,gp,-32766
     8c8:	01800184 	movi	r6,6
     8cc:	01500084 	movi	r5,16386
     8d0:	01001c04 	movi	r4,112
     8d4:	00004b80 	call	4b8 <SIGMA_WRITE_REGISTER_BLOCK>
	SIGMA_WRITE_DELAY( DEVICE_ADDR_IC_1, R4_DELAY_IC_1_SIZE, R4_DELAY_IC_1_Default );
	SIGMA_WRITE_REGISTER_BLOCK( DEVICE_ADDR_IC_1, REG_SERIAL_PORT_CONTROL_0_IC_1_ADDR , R5_SERIAL_PORT_CONTROL_REGISTERS_IC_1_SIZE, R5_SERIAL_PORT_CONTROL_REGISTERS_IC_1_Default );
     8d8:	d1e00284 	addi	r7,gp,-32758
     8dc:	01800084 	movi	r6,2
     8e0:	01500544 	movi	r5,16405
     8e4:	01001c04 	movi	r4,112
     8e8:	00004b80 	call	4b8 <SIGMA_WRITE_REGISTER_BLOCK>
	SIGMA_WRITE_REGISTER_BLOCK( DEVICE_ADDR_IC_1, REG_ALC_CONTROL_0_IC_1_ADDR , R6_ALC_CONTROL_REGISTERS_IC_1_SIZE, R6_ALC_CONTROL_REGISTERS_IC_1_Default );
     8ec:	d1e02044 	addi	r7,gp,-32639
     8f0:	01800104 	movi	r6,4
     8f4:	01500444 	movi	r5,16401
     8f8:	01001c04 	movi	r4,112
     8fc:	00004b80 	call	4b8 <SIGMA_WRITE_REGISTER_BLOCK>
	SIGMA_WRITE_REGISTER_BLOCK( DEVICE_ADDR_IC_1, REG_MICCTRLREGISTER_IC_1_ADDR, REG_MICCTRLREGISTER_IC_1_BYTE, R7_MICCTRLREGISTER_IC_1_Default );
     900:	d1e02144 	addi	r7,gp,-32635
     904:	01800044 	movi	r6,1
     908:	01500204 	movi	r5,16392
     90c:	01001c04 	movi	r4,112
     910:	00004b80 	call	4b8 <SIGMA_WRITE_REGISTER_BLOCK>
	SIGMA_WRITE_REGISTER_BLOCK( DEVICE_ADDR_IC_1, REG_RECORD_PWR_MANAGEMENT_IC_1_ADDR , R8_RECORD_INPUT_SIGNAL_PATH_REGISTERS_IC_1_SIZE, R8_RECORD_INPUT_SIGNAL_PATH_REGISTERS_IC_1_Default );
     914:	d1e00304 	addi	r7,gp,-32756
     918:	01800204 	movi	r6,8
     91c:	01500244 	movi	r5,16393
     920:	01001c04 	movi	r4,112
     924:	00004b80 	call	4b8 <SIGMA_WRITE_REGISTER_BLOCK>
	SIGMA_WRITE_REGISTER_BLOCK( DEVICE_ADDR_IC_1, REG_ADC_CONTROL_0_IC_1_ADDR , R9_ADC_CONTROL_REGISTERS_IC_1_SIZE, R9_ADC_CONTROL_REGISTERS_IC_1_Default );
     928:	d1e00504 	addi	r7,gp,-32748
     92c:	018000c4 	movi	r6,3
     930:	01500644 	movi	r5,16409
     934:	01001c04 	movi	r4,112
     938:	00004b80 	call	4b8 <SIGMA_WRITE_REGISTER_BLOCK>
	SIGMA_WRITE_REGISTER_BLOCK( DEVICE_ADDR_IC_1, REG_PLAYBACK_MIXER_LEFT_CONTROL_0_IC_1_ADDR , R10_PLAYBACK_OUTPUT_SIGNAL_PATH_REGISTERS_IC_1_SIZE, R10_PLAYBACK_OUTPUT_SIGNAL_PATH_REGISTERS_IC_1_Default );
     93c:	01c00074 	movhi	r7,1
     940:	39c29784 	addi	r7,r7,2654
     944:	01800384 	movi	r6,14
     948:	01500704 	movi	r5,16412
     94c:	01001c04 	movi	r4,112
     950:	00004b80 	call	4b8 <SIGMA_WRITE_REGISTER_BLOCK>
	SIGMA_WRITE_REGISTER_BLOCK( DEVICE_ADDR_IC_1, REG_CONVERTER_CTRL_0_IC_1_ADDR , R11_CONVERTER_CONTROL_REGISTERS_IC_1_SIZE, R11_CONVERTER_CONTROL_REGISTERS_IC_1_Default );
     954:	d1e02184 	addi	r7,gp,-32634
     958:	01800084 	movi	r6,2
     95c:	015005c4 	movi	r5,16407
     960:	01001c04 	movi	r4,112
     964:	00004b80 	call	4b8 <SIGMA_WRITE_REGISTER_BLOCK>
	SIGMA_WRITE_REGISTER_BLOCK( DEVICE_ADDR_IC_1, REG_DAC_CONTROL_0_IC_1_ADDR , R12_DAC_CONTROL_REGISTERS_IC_1_SIZE, R12_DAC_CONTROL_REGISTERS_IC_1_Default );
     968:	d1e005c4 	addi	r7,gp,-32745
     96c:	018000c4 	movi	r6,3
     970:	01500a84 	movi	r5,16426
     974:	01001c04 	movi	r4,112
     978:	00004b80 	call	4b8 <SIGMA_WRITE_REGISTER_BLOCK>
	SIGMA_WRITE_REGISTER_BLOCK( DEVICE_ADDR_IC_1, REG_SERIAL_PORT_PAD_CONTROL_0_IC_1_ADDR , R13_SERIAL_PORT_PAD_CONTROL_REGISTERS_IC_1_SIZE, R13_SERIAL_PORT_PAD_CONTROL_REGISTERS_IC_1_Default );
     97c:	d1e00684 	addi	r7,gp,-32742
     980:	01800044 	movi	r6,1
     984:	01500b44 	movi	r5,16429
     988:	01001c04 	movi	r4,112
     98c:	00004b80 	call	4b8 <SIGMA_WRITE_REGISTER_BLOCK>
	SIGMA_WRITE_REGISTER_BLOCK( DEVICE_ADDR_IC_1, REG_COMM_PORT_PAD_CTRL_0_IC_1_ADDR , R14_COMMUNICATION_PORT_PAD_CONTROL_REGISTERS_IC_1_SIZE, R14_COMMUNICATION_PORT_PAD_CONTROL_REGISTERS_IC_1_Default );
     990:	d1e006c4 	addi	r7,gp,-32741
     994:	01800084 	movi	r6,2
     998:	01500bc4 	movi	r5,16431
     99c:	01001c04 	movi	r4,112
     9a0:	00004b80 	call	4b8 <SIGMA_WRITE_REGISTER_BLOCK>
	SIGMA_WRITE_REGISTER_BLOCK( DEVICE_ADDR_IC_1, REG_JACKREGISTER_IC_1_ADDR, REG_JACKREGISTER_IC_1_BYTE, R15_JACKREGISTER_IC_1_Default );
     9a4:	d1e00744 	addi	r7,gp,-32739
     9a8:	01800044 	movi	r6,1
     9ac:	01500c44 	movi	r5,16433
     9b0:	01001c04 	movi	r4,112
     9b4:	00004b80 	call	4b8 <SIGMA_WRITE_REGISTER_BLOCK>
	SIGMA_WRITE_REGISTER_BLOCK( DEVICE_ADDR_IC_1, PROGRAM_ADDR_IC_1, PROGRAM_SIZE_IC_1, Program_Data_IC_1 );
     9b8:	01c00074 	movhi	r7,1
     9bc:	39c20104 	addi	r7,r7,2052
     9c0:	01808484 	movi	r6,530
     9c4:	01420004 	movi	r5,2048
     9c8:	01001c04 	movi	r4,112
     9cc:	00004b80 	call	4b8 <SIGMA_WRITE_REGISTER_BLOCK>
	SIGMA_WRITE_REGISTER_BLOCK( DEVICE_ADDR_IC_1, PROGRAM_ADDR_IC_1, PROGRAM_SIZE_IC_1, Program_Data_IC_1 );
     9d0:	01c00074 	movhi	r7,1
     9d4:	39c20104 	addi	r7,r7,2052
     9d8:	01808484 	movi	r6,530
     9dc:	01420004 	movi	r5,2048
     9e0:	01001c04 	movi	r4,112
     9e4:	00004b80 	call	4b8 <SIGMA_WRITE_REGISTER_BLOCK>
	SIGMA_WRITE_REGISTER_BLOCK( DEVICE_ADDR_IC_1, PROGRAM_ADDR_IC_1, PROGRAM_SIZE_IC_1, Program_Data_IC_1 );
     9e8:	01c00074 	movhi	r7,1
     9ec:	39c20104 	addi	r7,r7,2052
     9f0:	01808484 	movi	r6,530
     9f4:	01420004 	movi	r5,2048
     9f8:	01001c04 	movi	r4,112
     9fc:	00004b80 	call	4b8 <SIGMA_WRITE_REGISTER_BLOCK>
	SIGMA_WRITE_REGISTER_BLOCK( DEVICE_ADDR_IC_1, PROGRAM_ADDR_IC_1, PROGRAM_SIZE_IC_1, Program_Data_IC_1 );
     a00:	01c00074 	movhi	r7,1
     a04:	39c20104 	addi	r7,r7,2052
     a08:	01808484 	movi	r6,530
     a0c:	01420004 	movi	r5,2048
     a10:	01001c04 	movi	r4,112
     a14:	00004b80 	call	4b8 <SIGMA_WRITE_REGISTER_BLOCK>
	SIGMA_WRITE_REGISTER_BLOCK( DEVICE_ADDR_IC_1, PROGRAM_ADDR_IC_1, PROGRAM_SIZE_IC_1, Program_Data_IC_1 );
     a18:	01c00074 	movhi	r7,1
     a1c:	39c20104 	addi	r7,r7,2052
     a20:	01808484 	movi	r6,530
     a24:	01420004 	movi	r5,2048
     a28:	01001c04 	movi	r4,112
     a2c:	00004b80 	call	4b8 <SIGMA_WRITE_REGISTER_BLOCK>
	SIGMA_WRITE_REGISTER_BLOCK( DEVICE_ADDR_IC_1, REG_DSP_ENABLE_REGISTER_IC_1_ADDR, REG_DSP_ENABLE_REGISTER_IC_1_BYTE, R21_DSP_ENABLE_REGISTER_IC_1_Default );
     a30:	d1e00784 	addi	r7,gp,-32738
     a34:	01800044 	movi	r6,1
     a38:	01503d44 	movi	r5,16629
     a3c:	01001c04 	movi	r4,112
     a40:	00004b80 	call	4b8 <SIGMA_WRITE_REGISTER_BLOCK>
	SIGMA_WRITE_REGISTER_BLOCK( DEVICE_ADDR_IC_1, REG_CRC_IDEAL_1_IC_1_ADDR , R22_CRC_REGISTERS_IC_1_SIZE, R22_CRC_REGISTERS_IC_1_Default );
     a44:	d1e007c4 	addi	r7,gp,-32737
     a48:	01800144 	movi	r6,5
     a4c:	01503004 	movi	r5,16576
     a50:	01001c04 	movi	r4,112
     a54:	00004b80 	call	4b8 <SIGMA_WRITE_REGISTER_BLOCK>
	SIGMA_WRITE_REGISTER_BLOCK( DEVICE_ADDR_IC_1, REG_GPIO_0_CONTROL_IC_1_ADDR , R23_GPIO_REGISTERS_IC_1_SIZE, R23_GPIO_REGISTERS_IC_1_Default );
     a58:	d1e02204 	addi	r7,gp,-32632
     a5c:	01800104 	movi	r6,4
     a60:	01503184 	movi	r5,16582
     a64:	01001c04 	movi	r4,112
     a68:	00004b80 	call	4b8 <SIGMA_WRITE_REGISTER_BLOCK>
	SIGMA_WRITE_REGISTER_BLOCK( DEVICE_ADDR_IC_1, REG_NON_MODULO_RAM_1_IC_1_ADDR , R24_NON_MODULO_REGISTERS_IC_1_SIZE, R24_NON_MODULO_REGISTERS_IC_1_Default );
     a6c:	d1e00904 	addi	r7,gp,-32732
     a70:	01800084 	movi	r6,2
     a74:	01503a44 	movi	r5,16617
     a78:	01001c04 	movi	r4,112
     a7c:	00004b80 	call	4b8 <SIGMA_WRITE_REGISTER_BLOCK>
	SIGMA_WRITE_REGISTER_BLOCK( DEVICE_ADDR_IC_1, REG_WATCHDOG_ENABLE_IC_1_ADDR , R25_WATCHDOG_REGISTERS_IC_1_SIZE, R25_WATCHDOG_REGISTERS_IC_1_Default );
     a80:	d1e00984 	addi	r7,gp,-32730
     a84:	01800144 	movi	r6,5
     a88:	01503404 	movi	r5,16592
     a8c:	01001c04 	movi	r4,112
     a90:	00004b80 	call	4b8 <SIGMA_WRITE_REGISTER_BLOCK>
	SIGMA_WRITE_REGISTER_BLOCK( DEVICE_ADDR_IC_1, REG_SAMPLE_RATE_SETTING_IC_1_ADDR, REG_SAMPLE_RATE_SETTING_IC_1_BYTE, R26_SAMPLE_RATE_SETTING_IC_1_Default );
     a94:	d1e00ac4 	addi	r7,gp,-32725
     a98:	01800044 	movi	r6,1
     a9c:	01503ac4 	movi	r5,16619
     aa0:	01001c04 	movi	r4,112
     aa4:	00004b80 	call	4b8 <SIGMA_WRITE_REGISTER_BLOCK>
	SIGMA_WRITE_REGISTER_BLOCK( DEVICE_ADDR_IC_1, REG_ROUTING_MATRIX_INPUTS_IC_1_ADDR, REG_ROUTING_MATRIX_INPUTS_IC_1_BYTE, R27_ROUTING_MATRIX_INPUTS_IC_1_Default );
     aa8:	d1e02304 	addi	r7,gp,-32628
     aac:	01800044 	movi	r6,1
     ab0:	01503c84 	movi	r5,16626
     ab4:	01001c04 	movi	r4,112
     ab8:	00004b80 	call	4b8 <SIGMA_WRITE_REGISTER_BLOCK>
	SIGMA_WRITE_REGISTER_BLOCK( DEVICE_ADDR_IC_1, REG_ROUTING_MATRIX_OUTPUTS_IC_1_ADDR, REG_ROUTING_MATRIX_OUTPUTS_IC_1_BYTE, R28_ROUTING_MATRIX_OUTPUTS_IC_1_Default );
     abc:	d1e02344 	addi	r7,gp,-32627
     ac0:	01800044 	movi	r6,1
     ac4:	01503cc4 	movi	r5,16627
     ac8:	01001c04 	movi	r4,112
     acc:	00004b80 	call	4b8 <SIGMA_WRITE_REGISTER_BLOCK>
	SIGMA_WRITE_REGISTER_BLOCK( DEVICE_ADDR_IC_1, REG_SERIAL_DATAGPIO_PIN_CONFIG_IC_1_ADDR, REG_SERIAL_DATAGPIO_PIN_CONFIG_IC_1_BYTE, R29_SERIAL_DATAGPIO_PIN_CONFIG_IC_1_Default );
     ad0:	d1e02384 	addi	r7,gp,-32626
     ad4:	01800044 	movi	r6,1
     ad8:	01503d04 	movi	r5,16628
     adc:	01001c04 	movi	r4,112
     ae0:	00004b80 	call	4b8 <SIGMA_WRITE_REGISTER_BLOCK>
	SIGMA_WRITE_REGISTER_BLOCK( DEVICE_ADDR_IC_1, REG_DSP_SLEW_MODES_IC_1_ADDR, REG_DSP_SLEW_MODES_IC_1_BYTE, R30_DSP_SLEW_MODES_IC_1_Default );
     ae4:	d1e023c4 	addi	r7,gp,-32625
     ae8:	01800044 	movi	r6,1
     aec:	01503dc4 	movi	r5,16631
     af0:	01001c04 	movi	r4,112
     af4:	00004b80 	call	4b8 <SIGMA_WRITE_REGISTER_BLOCK>
	SIGMA_WRITE_REGISTER_BLOCK( DEVICE_ADDR_IC_1, REG_SERIAL_PORT_SAMPLE_RATE_SETTING_IC_1_ADDR, REG_SERIAL_PORT_SAMPLE_RATE_SETTING_IC_1_BYTE, R31_SERIAL_PORT_SAMPLE_RATE_SETTING_IC_1_Default );
     af8:	d1e02404 	addi	r7,gp,-32624
     afc:	01800044 	movi	r6,1
     b00:	01503e04 	movi	r5,16632
     b04:	01001c04 	movi	r4,112
     b08:	00004b80 	call	4b8 <SIGMA_WRITE_REGISTER_BLOCK>
	SIGMA_WRITE_REGISTER_BLOCK( DEVICE_ADDR_IC_1, REG_CLOCK_ENABLE_REG_0_IC_1_ADDR , R32_CLOCK_ENABLE_REGISTERS_IC_1_SIZE, R32_CLOCK_ENABLE_REGISTERS_IC_1_Default );
     b0c:	d1e00b04 	addi	r7,gp,-32724
     b10:	01800084 	movi	r6,2
     b14:	01503e44 	movi	r5,16633
     b18:	01001c04 	movi	r4,112
     b1c:	00004b80 	call	4b8 <SIGMA_WRITE_REGISTER_BLOCK>
	SIGMA_WRITE_REGISTER_BLOCK( DEVICE_ADDR_IC_1, PROGRAM_ADDR_IC_1, PROGRAM_SIZE_IC_1, Program_Data_IC_1 );
     b20:	01c00074 	movhi	r7,1
     b24:	39c20104 	addi	r7,r7,2052
     b28:	01808484 	movi	r6,530
     b2c:	01420004 	movi	r5,2048
     b30:	01001c04 	movi	r4,112
     b34:	00004b80 	call	4b8 <SIGMA_WRITE_REGISTER_BLOCK>
	SIGMA_WRITE_REGISTER_BLOCK( DEVICE_ADDR_IC_1, PARAM_ADDR_IC_1, PARAM_SIZE_IC_1, Param_Data_IC_1 );
     b38:	01c00074 	movhi	r7,1
     b3c:	39c28584 	addi	r7,r7,2582
     b40:	01801204 	movi	r6,72
     b44:	000b883a 	mov	r5,zero
     b48:	01001c04 	movi	r4,112
     b4c:	00004b80 	call	4b8 <SIGMA_WRITE_REGISTER_BLOCK>
	SIGMA_WRITE_REGISTER_BLOCK( DEVICE_ADDR_IC_1, REG_SAMPLE_RATE_SETTING_IC_1_ADDR, REG_SAMPLE_RATE_SETTING_IC_1_BYTE, R35_SAMPLE_RATE_SETTING_IC_1_Default );
     b50:	d1e00b84 	addi	r7,gp,-32722
     b54:	01800044 	movi	r6,1
     b58:	01503ac4 	movi	r5,16619
     b5c:	01001c04 	movi	r4,112
     b60:	00004b80 	call	4b8 <SIGMA_WRITE_REGISTER_BLOCK>
	SIGMA_WRITE_REGISTER_BLOCK( DEVICE_ADDR_IC_1, REG_DSP_RUN_REGISTER_IC_1_ADDR, REG_DSP_RUN_REGISTER_IC_1_BYTE, R36_DSP_RUN_REGISTER_IC_1_Default );
     b64:	d1e00bc4 	addi	r7,gp,-32721
     b68:	01800044 	movi	r6,1
     b6c:	01503d84 	movi	r5,16630
     b70:	01001c04 	movi	r4,112
     b74:	00004b80 	call	4b8 <SIGMA_WRITE_REGISTER_BLOCK>
	SIGMA_WRITE_REGISTER_BLOCK( DEVICE_ADDR_IC_1, REG_DEJITTER_REGISTER_CONTROL_IC_1_ADDR, REG_DEJITTER_REGISTER_CONTROL_IC_1_BYTE, R37_DEJITTER_REGISTER_CONTROL_IC_1_Default );
     b78:	d1e02444 	addi	r7,gp,-32623
     b7c:	01800044 	movi	r6,1
     b80:	01500d84 	movi	r5,16438
     b84:	01001c04 	movi	r4,112
     b88:	00004b80 	call	4b8 <SIGMA_WRITE_REGISTER_BLOCK>
	SIGMA_WRITE_REGISTER_BLOCK( DEVICE_ADDR_IC_1, REG_DEJITTER_REGISTER_CONTROL_IC_1_ADDR, REG_DEJITTER_REGISTER_CONTROL_IC_1_BYTE, R38_DEJITTER_REGISTER_CONTROL_IC_1_Default );
     b8c:	d1e00c04 	addi	r7,gp,-32720
     b90:	01800044 	movi	r6,1
     b94:	01500d84 	movi	r5,16438
     b98:	01001c04 	movi	r4,112
     b9c:	00004b80 	call	4b8 <SIGMA_WRITE_REGISTER_BLOCK>
}
     ba0:	0001883a 	nop
     ba4:	e037883a 	mov	sp,fp
     ba8:	dfc00117 	ldw	ra,4(sp)
     bac:	df000017 	ldw	fp,0(sp)
     bb0:	dec00204 	addi	sp,sp,8
     bb4:	f800283a 	ret

00000bb8 <msleep>:
int pwm_interval1 = 0;
int pwm_direction[4] = {-1, -1, -1, -1};
int pwm_counter[4] = {60000, 60000, 60000, 60000};

void msleep(int msec)
{
     bb8:	defffc04 	addi	sp,sp,-16
     bbc:	dfc00315 	stw	ra,12(sp)
     bc0:	df000215 	stw	fp,8(sp)
     bc4:	df000204 	addi	fp,sp,8
     bc8:	e13fff15 	stw	r4,-4(fp)
	for (int i = 0; i < msec; i++)
     bcc:	e03ffe15 	stw	zero,-8(fp)
     bd0:	00000506 	br	be8 <msleep+0x30>
	{
		usleep(1000);
     bd4:	0100fa04 	movi	r4,1000
     bd8:	000e6380 	call	e638 <usleep>
int pwm_direction[4] = {-1, -1, -1, -1};
int pwm_counter[4] = {60000, 60000, 60000, 60000};

void msleep(int msec)
{
	for (int i = 0; i < msec; i++)
     bdc:	e0bffe17 	ldw	r2,-8(fp)
     be0:	10800044 	addi	r2,r2,1
     be4:	e0bffe15 	stw	r2,-8(fp)
     be8:	e0fffe17 	ldw	r3,-8(fp)
     bec:	e0bfff17 	ldw	r2,-4(fp)
     bf0:	18bff816 	blt	r3,r2,bd4 <__reset+0xfbf00bd4>
	{
		usleep(1000);
	}
}
     bf4:	0001883a 	nop
     bf8:	e037883a 	mov	sp,fp
     bfc:	dfc00117 	ldw	ra,4(sp)
     c00:	df000017 	ldw	fp,0(sp)
     c04:	dec00204 	addi	sp,sp,8
     c08:	f800283a 	ret

00000c0c <read_device_id>:

// for QSPI Flash
int read_device_id(){
     c0c:	deffff04 	addi	sp,sp,-4
     c10:	df000015 	stw	fp,0(sp)
     c14:	d839883a 	mov	fp,sp
	IOWR(INTEL_GENERIC_SERIAL_FLASH_INTERFACE_TOP_0_AVL_CSR_BASE,0x7,0x0000489F);
     c18:	00d227c4 	movi	r3,18591
     c1c:	00810834 	movhi	r2,1056
     c20:	10864704 	addi	r2,r2,6428
     c24:	10c00035 	stwio	r3,0(r2)
	IOWR(INTEL_GENERIC_SERIAL_FLASH_INTERFACE_TOP_0_AVL_CSR_BASE,0x8,0x1);
     c28:	00c00044 	movi	r3,1
     c2c:	00810834 	movhi	r2,1056
     c30:	10864804 	addi	r2,r2,6432
     c34:	10c00035 	stwio	r3,0(r2)
	return IORD(INTEL_GENERIC_SERIAL_FLASH_INTERFACE_TOP_0_AVL_CSR_BASE,0xc);
     c38:	00810834 	movhi	r2,1056
     c3c:	10864c04 	addi	r2,r2,6448
     c40:	10800037 	ldwio	r2,0(r2)
}
     c44:	e037883a 	mov	sp,fp
     c48:	df000017 	ldw	fp,0(sp)
     c4c:	dec00104 	addi	sp,sp,4
     c50:	f800283a 	ret

00000c54 <read_status_register>:

int read_status_register(){
     c54:	deffff04 	addi	sp,sp,-4
     c58:	df000015 	stw	fp,0(sp)
     c5c:	d839883a 	mov	fp,sp
	IOWR(INTEL_GENERIC_SERIAL_FLASH_INTERFACE_TOP_0_AVL_CSR_BASE,0x7,0x00001805);
     c60:	00c60144 	movi	r3,6149
     c64:	00810834 	movhi	r2,1056
     c68:	10864704 	addi	r2,r2,6428
     c6c:	10c00035 	stwio	r3,0(r2)
	IOWR(INTEL_GENERIC_SERIAL_FLASH_INTERFACE_TOP_0_AVL_CSR_BASE,0x8,0x1);
     c70:	00c00044 	movi	r3,1
     c74:	00810834 	movhi	r2,1056
     c78:	10864804 	addi	r2,r2,6432
     c7c:	10c00035 	stwio	r3,0(r2)
	return IORD(INTEL_GENERIC_SERIAL_FLASH_INTERFACE_TOP_0_AVL_CSR_BASE,0xc);
     c80:	00810834 	movhi	r2,1056
     c84:	10864c04 	addi	r2,r2,6448
     c88:	10800037 	ldwio	r2,0(r2)
}
     c8c:	e037883a 	mov	sp,fp
     c90:	df000017 	ldw	fp,0(sp)
     c94:	dec00104 	addi	sp,sp,4
     c98:	f800283a 	ret

00000c9c <read_flag_status_register>:

int read_flag_status_register(){
     c9c:	deffff04 	addi	sp,sp,-4
     ca0:	df000015 	stw	fp,0(sp)
     ca4:	d839883a 	mov	fp,sp
	IOWR(INTEL_GENERIC_SERIAL_FLASH_INTERFACE_TOP_0_AVL_CSR_BASE,0x7,0x00001870);
     ca8:	00c61c04 	movi	r3,6256
     cac:	00810834 	movhi	r2,1056
     cb0:	10864704 	addi	r2,r2,6428
     cb4:	10c00035 	stwio	r3,0(r2)
	IOWR(INTEL_GENERIC_SERIAL_FLASH_INTERFACE_TOP_0_AVL_CSR_BASE,0x8,0x1);
     cb8:	00c00044 	movi	r3,1
     cbc:	00810834 	movhi	r2,1056
     cc0:	10864804 	addi	r2,r2,6432
     cc4:	10c00035 	stwio	r3,0(r2)
	return IORD(INTEL_GENERIC_SERIAL_FLASH_INTERFACE_TOP_0_AVL_CSR_BASE,0xc);
     cc8:	00810834 	movhi	r2,1056
     ccc:	10864c04 	addi	r2,r2,6448
     cd0:	10800037 	ldwio	r2,0(r2)
}
     cd4:	e037883a 	mov	sp,fp
     cd8:	df000017 	ldw	fp,0(sp)
     cdc:	dec00104 	addi	sp,sp,4
     ce0:	f800283a 	ret

00000ce4 <write_enable>:

void write_enable(){
     ce4:	deffff04 	addi	sp,sp,-4
     ce8:	df000015 	stw	fp,0(sp)
     cec:	d839883a 	mov	fp,sp
	IOWR(INTEL_GENERIC_SERIAL_FLASH_INTERFACE_TOP_0_AVL_CSR_BASE,0x7,0x00000006);
     cf0:	00c00184 	movi	r3,6
     cf4:	00810834 	movhi	r2,1056
     cf8:	10864704 	addi	r2,r2,6428
     cfc:	10c00035 	stwio	r3,0(r2)
	IOWR(INTEL_GENERIC_SERIAL_FLASH_INTERFACE_TOP_0_AVL_CSR_BASE,0x8,0x1);
     d00:	00c00044 	movi	r3,1
     d04:	00810834 	movhi	r2,1056
     d08:	10864804 	addi	r2,r2,6432
     d0c:	10c00035 	stwio	r3,0(r2)
	IOWR(INTEL_GENERIC_SERIAL_FLASH_INTERFACE_TOP_0_AVL_CSR_BASE,0xA,1);
     d10:	00c00044 	movi	r3,1
     d14:	00810834 	movhi	r2,1056
     d18:	10864a04 	addi	r2,r2,6440
     d1c:	10c00035 	stwio	r3,0(r2)
}
     d20:	0001883a 	nop
     d24:	e037883a 	mov	sp,fp
     d28:	df000017 	ldw	fp,0(sp)
     d2c:	dec00104 	addi	sp,sp,4
     d30:	f800283a 	ret

00000d34 <enter_4byte_addressing_mode>:

void enter_4byte_addressing_mode(){
     d34:	deffff04 	addi	sp,sp,-4
     d38:	df000015 	stw	fp,0(sp)
     d3c:	d839883a 	mov	fp,sp
	IOWR(INTEL_GENERIC_SERIAL_FLASH_INTERFACE_TOP_0_AVL_CSR_BASE,0x7,0x000000B7);
     d40:	00c02dc4 	movi	r3,183
     d44:	00810834 	movhi	r2,1056
     d48:	10864704 	addi	r2,r2,6428
     d4c:	10c00035 	stwio	r3,0(r2)
	IOWR(INTEL_GENERIC_SERIAL_FLASH_INTERFACE_TOP_0_AVL_CSR_BASE,0x8,0x1);
     d50:	00c00044 	movi	r3,1
     d54:	00810834 	movhi	r2,1056
     d58:	10864804 	addi	r2,r2,6432
     d5c:	10c00035 	stwio	r3,0(r2)
	IOWR(INTEL_GENERIC_SERIAL_FLASH_INTERFACE_TOP_0_AVL_CSR_BASE,0xA,1);
     d60:	00c00044 	movi	r3,1
     d64:	00810834 	movhi	r2,1056
     d68:	10864a04 	addi	r2,r2,6440
     d6c:	10c00035 	stwio	r3,0(r2)
}
     d70:	0001883a 	nop
     d74:	e037883a 	mov	sp,fp
     d78:	df000017 	ldw	fp,0(sp)
     d7c:	dec00104 	addi	sp,sp,4
     d80:	f800283a 	ret

00000d84 <clear_flag_status_register>:

void clear_flag_status_register(){
     d84:	deffff04 	addi	sp,sp,-4
     d88:	df000015 	stw	fp,0(sp)
     d8c:	d839883a 	mov	fp,sp
	IOWR(INTEL_GENERIC_SERIAL_FLASH_INTERFACE_TOP_0_AVL_CSR_BASE,0x7,0x00000050);
     d90:	00c01404 	movi	r3,80
     d94:	00810834 	movhi	r2,1056
     d98:	10864704 	addi	r2,r2,6428
     d9c:	10c00035 	stwio	r3,0(r2)
	IOWR(INTEL_GENERIC_SERIAL_FLASH_INTERFACE_TOP_0_AVL_CSR_BASE,0x8,0x1);
     da0:	00c00044 	movi	r3,1
     da4:	00810834 	movhi	r2,1056
     da8:	10864804 	addi	r2,r2,6432
     dac:	10c00035 	stwio	r3,0(r2)
	IOWR(INTEL_GENERIC_SERIAL_FLASH_INTERFACE_TOP_0_AVL_CSR_BASE,0xA,1);
     db0:	00c00044 	movi	r3,1
     db4:	00810834 	movhi	r2,1056
     db8:	10864a04 	addi	r2,r2,6440
     dbc:	10c00035 	stwio	r3,0(r2)
}
     dc0:	0001883a 	nop
     dc4:	e037883a 	mov	sp,fp
     dc8:	df000017 	ldw	fp,0(sp)
     dcc:	dec00104 	addi	sp,sp,4
     dd0:	f800283a 	ret

00000dd4 <read_bank_register>:

int read_bank_register(){
     dd4:	deffff04 	addi	sp,sp,-4
     dd8:	df000015 	stw	fp,0(sp)
     ddc:	d839883a 	mov	fp,sp
	IOWR(INTEL_GENERIC_SERIAL_FLASH_INTERFACE_TOP_0_AVL_CSR_BASE,0x7,0x00001816);
     de0:	00c60584 	movi	r3,6166
     de4:	00810834 	movhi	r2,1056
     de8:	10864704 	addi	r2,r2,6428
     dec:	10c00035 	stwio	r3,0(r2)
	IOWR(INTEL_GENERIC_SERIAL_FLASH_INTERFACE_TOP_0_AVL_CSR_BASE,0x8,0x1);
     df0:	00c00044 	movi	r3,1
     df4:	00810834 	movhi	r2,1056
     df8:	10864804 	addi	r2,r2,6432
     dfc:	10c00035 	stwio	r3,0(r2)
	return IORD(INTEL_GENERIC_SERIAL_FLASH_INTERFACE_TOP_0_AVL_CSR_BASE,0xc);
     e00:	00810834 	movhi	r2,1056
     e04:	10864c04 	addi	r2,r2,6448
     e08:	10800037 	ldwio	r2,0(r2)
}
     e0c:	e037883a 	mov	sp,fp
     e10:	df000017 	ldw	fp,0(sp)
     e14:	dec00104 	addi	sp,sp,4
     e18:	f800283a 	ret

00000e1c <write_bank_register_enter4byte>:

//for cypress flash to enter four byte addr
void write_bank_register_enter4byte(){
     e1c:	deffff04 	addi	sp,sp,-4
     e20:	df000015 	stw	fp,0(sp)
     e24:	d839883a 	mov	fp,sp
	IOWR(INTEL_GENERIC_SERIAL_FLASH_INTERFACE_TOP_0_AVL_CSR_BASE,0x7,0x00001017);
     e28:	00c405c4 	movi	r3,4119
     e2c:	00810834 	movhi	r2,1056
     e30:	10864704 	addi	r2,r2,6428
     e34:	10c00035 	stwio	r3,0(r2)
	IOWR(INTEL_GENERIC_SERIAL_FLASH_INTERFACE_TOP_0_AVL_CSR_BASE,0xA,0x00000080);
     e38:	00c02004 	movi	r3,128
     e3c:	00810834 	movhi	r2,1056
     e40:	10864a04 	addi	r2,r2,6440
     e44:	10c00035 	stwio	r3,0(r2)
	IOWR(INTEL_GENERIC_SERIAL_FLASH_INTERFACE_TOP_0_AVL_CSR_BASE,0x8,0x1);
     e48:	00c00044 	movi	r3,1
     e4c:	00810834 	movhi	r2,1056
     e50:	10864804 	addi	r2,r2,6432
     e54:	10c00035 	stwio	r3,0(r2)
}
     e58:	0001883a 	nop
     e5c:	e037883a 	mov	sp,fp
     e60:	df000017 	ldw	fp,0(sp)
     e64:	dec00104 	addi	sp,sp,4
     e68:	f800283a 	ret

00000e6c <write_bank_register_exit4byte>:

//for cypress flash to enter 3 byte addr
void write_bank_register_exit4byte(){
     e6c:	deffff04 	addi	sp,sp,-4
     e70:	df000015 	stw	fp,0(sp)
     e74:	d839883a 	mov	fp,sp
	IOWR(INTEL_GENERIC_SERIAL_FLASH_INTERFACE_TOP_0_AVL_CSR_BASE,0x7,0x00001017);
     e78:	00c405c4 	movi	r3,4119
     e7c:	00810834 	movhi	r2,1056
     e80:	10864704 	addi	r2,r2,6428
     e84:	10c00035 	stwio	r3,0(r2)
	IOWR(INTEL_GENERIC_SERIAL_FLASH_INTERFACE_TOP_0_AVL_CSR_BASE,0xA,0x00000000);
     e88:	0007883a 	mov	r3,zero
     e8c:	00810834 	movhi	r2,1056
     e90:	10864a04 	addi	r2,r2,6440
     e94:	10c00035 	stwio	r3,0(r2)
	IOWR(INTEL_GENERIC_SERIAL_FLASH_INTERFACE_TOP_0_AVL_CSR_BASE,0x8,0x1);
     e98:	00c00044 	movi	r3,1
     e9c:	00810834 	movhi	r2,1056
     ea0:	10864804 	addi	r2,r2,6432
     ea4:	10c00035 	stwio	r3,0(r2)
}
     ea8:	0001883a 	nop
     eac:	e037883a 	mov	sp,fp
     eb0:	df000017 	ldw	fp,0(sp)
     eb4:	dec00104 	addi	sp,sp,4
     eb8:	f800283a 	ret

00000ebc <read_config_register>:

//to check cypress flash in dual or quad mode
int read_config_register(){
     ebc:	deffff04 	addi	sp,sp,-4
     ec0:	df000015 	stw	fp,0(sp)
     ec4:	d839883a 	mov	fp,sp
	IOWR(INTEL_GENERIC_SERIAL_FLASH_INTERFACE_TOP_0_AVL_CSR_BASE,0x7,0x00001835);
     ec8:	00c60d44 	movi	r3,6197
     ecc:	00810834 	movhi	r2,1056
     ed0:	10864704 	addi	r2,r2,6428
     ed4:	10c00035 	stwio	r3,0(r2)
	IOWR(INTEL_GENERIC_SERIAL_FLASH_INTERFACE_TOP_0_AVL_CSR_BASE,0x8,0x1);
     ed8:	00c00044 	movi	r3,1
     edc:	00810834 	movhi	r2,1056
     ee0:	10864804 	addi	r2,r2,6432
     ee4:	10c00035 	stwio	r3,0(r2)
	return IORD(INTEL_GENERIC_SERIAL_FLASH_INTERFACE_TOP_0_AVL_CSR_BASE,0xc);
     ee8:	00810834 	movhi	r2,1056
     eec:	10864c04 	addi	r2,r2,6448
     ef0:	10800037 	ldwio	r2,0(r2)
}
     ef4:	e037883a 	mov	sp,fp
     ef8:	df000017 	ldw	fp,0(sp)
     efc:	dec00104 	addi	sp,sp,4
     f00:	f800283a 	ret

00000f04 <write_config_register>:

//for cypress flash to enter quad mode
void write_config_register(){
     f04:	deffff04 	addi	sp,sp,-4
     f08:	df000015 	stw	fp,0(sp)
     f0c:	d839883a 	mov	fp,sp
	IOWR(INTEL_GENERIC_SERIAL_FLASH_INTERFACE_TOP_0_AVL_CSR_BASE,0x7,0x00002001);
     f10:	00c80044 	movi	r3,8193
     f14:	00810834 	movhi	r2,1056
     f18:	10864704 	addi	r2,r2,6428
     f1c:	10c00035 	stwio	r3,0(r2)
	IOWR(INTEL_GENERIC_SERIAL_FLASH_INTERFACE_TOP_0_AVL_CSR_BASE,0xA,0x00000200);
     f20:	00c08004 	movi	r3,512
     f24:	00810834 	movhi	r2,1056
     f28:	10864a04 	addi	r2,r2,6440
     f2c:	10c00035 	stwio	r3,0(r2)
	IOWR(INTEL_GENERIC_SERIAL_FLASH_INTERFACE_TOP_0_AVL_CSR_BASE,0x8,0x1);
     f30:	00c00044 	movi	r3,1
     f34:	00810834 	movhi	r2,1056
     f38:	10864804 	addi	r2,r2,6432
     f3c:	10c00035 	stwio	r3,0(r2)
}
     f40:	0001883a 	nop
     f44:	e037883a 	mov	sp,fp
     f48:	df000017 	ldw	fp,0(sp)
     f4c:	dec00104 	addi	sp,sp,4
     f50:	f800283a 	ret

00000f54 <clear_status_register>:

//exit p_err & e_err mode
void clear_status_register(){
     f54:	deffff04 	addi	sp,sp,-4
     f58:	df000015 	stw	fp,0(sp)
     f5c:	d839883a 	mov	fp,sp
	IOWR(INTEL_GENERIC_SERIAL_FLASH_INTERFACE_TOP_0_AVL_CSR_BASE,0x7,0x00001030);
     f60:	00c40c04 	movi	r3,4144
     f64:	00810834 	movhi	r2,1056
     f68:	10864704 	addi	r2,r2,6428
     f6c:	10c00035 	stwio	r3,0(r2)
	IOWR(INTEL_GENERIC_SERIAL_FLASH_INTERFACE_TOP_0_AVL_CSR_BASE,0x8,0x1);
     f70:	00c00044 	movi	r3,1
     f74:	00810834 	movhi	r2,1056
     f78:	10864804 	addi	r2,r2,6432
     f7c:	10c00035 	stwio	r3,0(r2)
	IOWR(INTEL_GENERIC_SERIAL_FLASH_INTERFACE_TOP_0_AVL_CSR_BASE,0xA,1);
     f80:	00c00044 	movi	r3,1
     f84:	00810834 	movhi	r2,1056
     f88:	10864a04 	addi	r2,r2,6440
     f8c:	10c00035 	stwio	r3,0(r2)
}
     f90:	0001883a 	nop
     f94:	e037883a 	mov	sp,fp
     f98:	df000017 	ldw	fp,0(sp)
     f9c:	dec00104 	addi	sp,sp,4
     fa0:	f800283a 	ret

00000fa4 <erase_sector_cypress>:

void erase_sector_cypress(){
     fa4:	deffff04 	addi	sp,sp,-4
     fa8:	df000015 	stw	fp,0(sp)
     fac:	d839883a 	mov	fp,sp
	IOWR(INTEL_GENERIC_SERIAL_FLASH_INTERFACE_TOP_0_AVL_CSR_BASE,0x7,0x000003D8);
     fb0:	00c0f604 	movi	r3,984
     fb4:	00810834 	movhi	r2,1056
     fb8:	10864704 	addi	r2,r2,6428
     fbc:	10c00035 	stwio	r3,0(r2)
	IOWR(INTEL_GENERIC_SERIAL_FLASH_INTERFACE_TOP_0_AVL_CSR_BASE,0x9,0x00000000);
     fc0:	0007883a 	mov	r3,zero
     fc4:	00810834 	movhi	r2,1056
     fc8:	10864904 	addi	r2,r2,6436
     fcc:	10c00035 	stwio	r3,0(r2)
	IOWR(INTEL_GENERIC_SERIAL_FLASH_INTERFACE_TOP_0_AVL_CSR_BASE,0x8,0x1);
     fd0:	00c00044 	movi	r3,1
     fd4:	00810834 	movhi	r2,1056
     fd8:	10864804 	addi	r2,r2,6432
     fdc:	10c00035 	stwio	r3,0(r2)
}
     fe0:	0001883a 	nop
     fe4:	e037883a 	mov	sp,fp
     fe8:	df000017 	ldw	fp,0(sp)
     fec:	dec00104 	addi	sp,sp,4
     ff0:	f800283a 	ret

00000ff4 <read_memory>:

int read_memory(){
     ff4:	deffff04 	addi	sp,sp,-4
     ff8:	df000015 	stw	fp,0(sp)
     ffc:	d839883a 	mov	fp,sp
	IOWR(INTEL_GENERIC_SERIAL_FLASH_INTERFACE_TOP_0_AVL_CSR_BASE,0x4,0x00000000);
    1000:	0007883a 	mov	r3,zero
    1004:	00810834 	movhi	r2,1056
    1008:	10864404 	addi	r2,r2,6416
    100c:	10c00035 	stwio	r3,0(r2)
	IOWR(INTEL_GENERIC_SERIAL_FLASH_INTERFACE_TOP_0_AVL_CSR_BASE,0x0,0x00000101);
    1010:	00c04044 	movi	r3,257
    1014:	00810834 	movhi	r2,1056
    1018:	10864004 	addi	r2,r2,6400
    101c:	10c00035 	stwio	r3,0(r2)
	IOWR(INTEL_GENERIC_SERIAL_FLASH_INTERFACE_TOP_0_AVL_CSR_BASE,0x5,0x00000003);
    1020:	00c000c4 	movi	r3,3
    1024:	00810834 	movhi	r2,1056
    1028:	10864504 	addi	r2,r2,6420
    102c:	10c00035 	stwio	r3,0(r2)
	return IORD(INTEL_GENERIC_SERIAL_FLASH_INTERFACE_TOP_0_AVL_MEM_BASE,0x00000000);
    1030:	0080c034 	movhi	r2,768
    1034:	10800037 	ldwio	r2,0(r2)
}
    1038:	e037883a 	mov	sp,fp
    103c:	df000017 	ldw	fp,0(sp)
    1040:	dec00104 	addi	sp,sp,4
    1044:	f800283a 	ret

00001048 <read_memory_3byte>:
int read_memory_3byte(){
    1048:	deffff04 	addi	sp,sp,-4
    104c:	df000015 	stw	fp,0(sp)
    1050:	d839883a 	mov	fp,sp
	IOWR(INTEL_GENERIC_SERIAL_FLASH_INTERFACE_TOP_0_AVL_CSR_BASE,0x4,0x00000000);
    1054:	0007883a 	mov	r3,zero
    1058:	00810834 	movhi	r2,1056
    105c:	10864404 	addi	r2,r2,6416
    1060:	10c00035 	stwio	r3,0(r2)
	IOWR(INTEL_GENERIC_SERIAL_FLASH_INTERFACE_TOP_0_AVL_CSR_BASE,0x0,0x00000001);
    1064:	00c00044 	movi	r3,1
    1068:	00810834 	movhi	r2,1056
    106c:	10864004 	addi	r2,r2,6400
    1070:	10c00035 	stwio	r3,0(r2)
	IOWR(INTEL_GENERIC_SERIAL_FLASH_INTERFACE_TOP_0_AVL_CSR_BASE,0x5,0x00000003);
    1074:	00c000c4 	movi	r3,3
    1078:	00810834 	movhi	r2,1056
    107c:	10864504 	addi	r2,r2,6420
    1080:	10c00035 	stwio	r3,0(r2)
	return IORD(INTEL_GENERIC_SERIAL_FLASH_INTERFACE_TOP_0_AVL_MEM_BASE,0x00000000);
    1084:	0080c034 	movhi	r2,768
    1088:	10800037 	ldwio	r2,0(r2)
}
    108c:	e037883a 	mov	sp,fp
    1090:	df000017 	ldw	fp,0(sp)
    1094:	dec00104 	addi	sp,sp,4
    1098:	f800283a 	ret

0000109c <cypress_four_byte_fast_read>:
//cypress 4 byte fast read (0C)
int cypress_four_byte_fast_read(){
    109c:	deffff04 	addi	sp,sp,-4
    10a0:	df000015 	stw	fp,0(sp)
    10a4:	d839883a 	mov	fp,sp
	IOWR(INTEL_GENERIC_SERIAL_FLASH_INTERFACE_TOP_0_AVL_CSR_BASE,0x4,0x00000000);
    10a8:	0007883a 	mov	r3,zero
    10ac:	00810834 	movhi	r2,1056
    10b0:	10864404 	addi	r2,r2,6416
    10b4:	10c00035 	stwio	r3,0(r2)
	IOWR(INTEL_GENERIC_SERIAL_FLASH_INTERFACE_TOP_0_AVL_CSR_BASE,0x0,0x00000101);
    10b8:	00c04044 	movi	r3,257
    10bc:	00810834 	movhi	r2,1056
    10c0:	10864004 	addi	r2,r2,6400
    10c4:	10c00035 	stwio	r3,0(r2)
	IOWR(INTEL_GENERIC_SERIAL_FLASH_INTERFACE_TOP_0_AVL_CSR_BASE,0x5,0x000080C);
    10c8:	00c20304 	movi	r3,2060
    10cc:	00810834 	movhi	r2,1056
    10d0:	10864504 	addi	r2,r2,6420
    10d4:	10c00035 	stwio	r3,0(r2)
	return IORD(INTEL_GENERIC_SERIAL_FLASH_INTERFACE_TOP_0_AVL_MEM_BASE,0x00000000);
    10d8:	0080c034 	movhi	r2,768
    10dc:	10800037 	ldwio	r2,0(r2)
}
    10e0:	e037883a 	mov	sp,fp
    10e4:	df000017 	ldw	fp,0(sp)
    10e8:	dec00104 	addi	sp,sp,4
    10ec:	f800283a 	ret

000010f0 <write_memory>:

//4byte addr page program
void write_memory(){
    10f0:	deffff04 	addi	sp,sp,-4
    10f4:	df000015 	stw	fp,0(sp)
    10f8:	d839883a 	mov	fp,sp
	IOWR(INTEL_GENERIC_SERIAL_FLASH_INTERFACE_TOP_0_AVL_CSR_BASE,0x4,0x00000000);
    10fc:	0007883a 	mov	r3,zero
    1100:	00810834 	movhi	r2,1056
    1104:	10864404 	addi	r2,r2,6416
    1108:	10c00035 	stwio	r3,0(r2)
	IOWR(INTEL_GENERIC_SERIAL_FLASH_INTERFACE_TOP_0_AVL_CSR_BASE,0x0,0x00000101);
    110c:	00c04044 	movi	r3,257
    1110:	00810834 	movhi	r2,1056
    1114:	10864004 	addi	r2,r2,6400
    1118:	10c00035 	stwio	r3,0(r2)
	IOWR(INTEL_GENERIC_SERIAL_FLASH_INTERFACE_TOP_0_AVL_CSR_BASE,0x6,0x00007002);
    111c:	00dc0084 	movi	r3,28674
    1120:	00810834 	movhi	r2,1056
    1124:	10864604 	addi	r2,r2,6424
    1128:	10c00035 	stwio	r3,0(r2)
	IOWR(INTEL_GENERIC_SERIAL_FLASH_INTERFACE_TOP_0_AVL_MEM_BASE,0x00000000,0xabcd1234);
    112c:	00aaf374 	movhi	r2,43981
    1130:	10848d04 	addi	r2,r2,4660
    1134:	00c0c034 	movhi	r3,768
    1138:	18800035 	stwio	r2,0(r3)
}
    113c:	0001883a 	nop
    1140:	e037883a 	mov	sp,fp
    1144:	df000017 	ldw	fp,0(sp)
    1148:	dec00104 	addi	sp,sp,4
    114c:	f800283a 	ret

00001150 <write_memory_3byte>:
void write_memory_3byte(){
    1150:	deffff04 	addi	sp,sp,-4
    1154:	df000015 	stw	fp,0(sp)
    1158:	d839883a 	mov	fp,sp
	IOWR(INTEL_GENERIC_SERIAL_FLASH_INTERFACE_TOP_0_AVL_CSR_BASE,0x4,0x00000000);
    115c:	0007883a 	mov	r3,zero
    1160:	00810834 	movhi	r2,1056
    1164:	10864404 	addi	r2,r2,6416
    1168:	10c00035 	stwio	r3,0(r2)
	IOWR(INTEL_GENERIC_SERIAL_FLASH_INTERFACE_TOP_0_AVL_CSR_BASE,0x0,0x00000001);
    116c:	00c00044 	movi	r3,1
    1170:	00810834 	movhi	r2,1056
    1174:	10864004 	addi	r2,r2,6400
    1178:	10c00035 	stwio	r3,0(r2)
	IOWR(INTEL_GENERIC_SERIAL_FLASH_INTERFACE_TOP_0_AVL_CSR_BASE,0x6,0x00000502);
    117c:	00c14084 	movi	r3,1282
    1180:	00810834 	movhi	r2,1056
    1184:	10864604 	addi	r2,r2,6424
    1188:	10c00035 	stwio	r3,0(r2)
	IOWR(INTEL_GENERIC_SERIAL_FLASH_INTERFACE_TOP_0_AVL_MEM_BASE,0x00000000,0xabcd1234);
    118c:	00aaf374 	movhi	r2,43981
    1190:	10848d04 	addi	r2,r2,4660
    1194:	00c0c034 	movhi	r3,768
    1198:	18800035 	stwio	r2,0(r3)
}
    119c:	0001883a 	nop
    11a0:	e037883a 	mov	sp,fp
    11a4:	df000017 	ldw	fp,0(sp)
    11a8:	dec00104 	addi	sp,sp,4
    11ac:	f800283a 	ret

000011b0 <write_register_for_sector_protect_cypress>:

//Bit 5 & Bit 3 set of configuration register set to 1; Sector 0 of memory array is protected(TB-BP2-BP1-BP0:1-0-0-1) in status register;
void write_register_for_sector_protect_cypress(){
    11b0:	deffff04 	addi	sp,sp,-4
    11b4:	df000015 	stw	fp,0(sp)
    11b8:	d839883a 	mov	fp,sp
	IOWR(INTEL_GENERIC_SERIAL_FLASH_INTERFACE_TOP_0_AVL_CSR_BASE,0x7,0x00002001);
    11bc:	00c80044 	movi	r3,8193
    11c0:	00810834 	movhi	r2,1056
    11c4:	10864704 	addi	r2,r2,6428
    11c8:	10c00035 	stwio	r3,0(r2)
	IOWR(INTEL_GENERIC_SERIAL_FLASH_INTERFACE_TOP_0_AVL_CSR_BASE,0xA,0x0000201c);
    11cc:	00c80704 	movi	r3,8220
    11d0:	00810834 	movhi	r2,1056
    11d4:	10864a04 	addi	r2,r2,6440
    11d8:	10c00035 	stwio	r3,0(r2)
	IOWR(INTEL_GENERIC_SERIAL_FLASH_INTERFACE_TOP_0_AVL_CSR_BASE,0x8,0x1);
    11dc:	00c00044 	movi	r3,1
    11e0:	00810834 	movhi	r2,1056
    11e4:	10864804 	addi	r2,r2,6432
    11e8:	10c00035 	stwio	r3,0(r2)
}
    11ec:	0001883a 	nop
    11f0:	e037883a 	mov	sp,fp
    11f4:	df000017 	ldw	fp,0(sp)
    11f8:	dec00104 	addi	sp,sp,4
    11fc:	f800283a 	ret

00001200 <write_register_for_sector_unprotect_cypress>:

void write_register_for_sector_unprotect_cypress(){
    1200:	deffff04 	addi	sp,sp,-4
    1204:	df000015 	stw	fp,0(sp)
    1208:	d839883a 	mov	fp,sp
	IOWR(INTEL_GENERIC_SERIAL_FLASH_INTERFACE_TOP_0_AVL_CSR_BASE,0x7,0x00002001);
    120c:	00c80044 	movi	r3,8193
    1210:	00810834 	movhi	r2,1056
    1214:	10864704 	addi	r2,r2,6428
    1218:	10c00035 	stwio	r3,0(r2)
	IOWR(INTEL_GENERIC_SERIAL_FLASH_INTERFACE_TOP_0_AVL_CSR_BASE,0xA,0x00002000);
    121c:	00c80004 	movi	r3,8192
    1220:	00810834 	movhi	r2,1056
    1224:	10864a04 	addi	r2,r2,6440
    1228:	10c00035 	stwio	r3,0(r2)
	IOWR(INTEL_GENERIC_SERIAL_FLASH_INTERFACE_TOP_0_AVL_CSR_BASE,0x8,0x1);
    122c:	00c00044 	movi	r3,1
    1230:	00810834 	movhi	r2,1056
    1234:	10864804 	addi	r2,r2,6432
    1238:	10c00035 	stwio	r3,0(r2)
}
    123c:	0001883a 	nop
    1240:	e037883a 	mov	sp,fp
    1244:	df000017 	ldw	fp,0(sp)
    1248:	dec00104 	addi	sp,sp,4
    124c:	f800283a 	ret

00001250 <isr_timer0>:

static void isr_timer0(void *context)
{
    1250:	defffe04 	addi	sp,sp,-8
    1254:	df000115 	stw	fp,4(sp)
    1258:	df000104 	addi	fp,sp,4
    125c:	e13fff15 	stw	r4,-4(fp)
	pwm_interval0++;
    1260:	d0a02a17 	ldw	r2,-32600(gp)
    1264:	10800044 	addi	r2,r2,1
    1268:	d0a02a15 	stw	r2,-32600(gp)
	if (pwm_interval0 > 4)
    126c:	d0a02a17 	ldw	r2,-32600(gp)
    1270:	10800150 	cmplti	r2,r2,5
    1274:	10004f1e 	bne	r2,zero,13b4 <isr_timer0+0x164>
	{
		IOWR(AVALON_PWM_0_BASE, pwm_addr0, pwm_counter[pwm_addr0]);
    1278:	d0a02917 	ldw	r2,-32604(gp)
    127c:	1085883a 	add	r2,r2,r2
    1280:	1085883a 	add	r2,r2,r2
    1284:	1007883a 	mov	r3,r2
    1288:	00810834 	movhi	r2,1056
    128c:	10869004 	addi	r2,r2,6720
    1290:	1889883a 	add	r4,r3,r2
    1294:	d0e02917 	ldw	r3,-32604(gp)
    1298:	00800074 	movhi	r2,1
    129c:	10829f04 	addi	r2,r2,2684
    12a0:	18c7883a 	add	r3,r3,r3
    12a4:	18c7883a 	add	r3,r3,r3
    12a8:	10c5883a 	add	r2,r2,r3
    12ac:	10800017 	ldw	r2,0(r2)
    12b0:	20800035 	stwio	r2,0(r4)
		pwm_counter[pwm_addr0] += pwm_direction[pwm_addr0];
    12b4:	d0e02917 	ldw	r3,-32604(gp)
    12b8:	d1202917 	ldw	r4,-32604(gp)
    12bc:	00800074 	movhi	r2,1
    12c0:	10829f04 	addi	r2,r2,2684
    12c4:	2109883a 	add	r4,r4,r4
    12c8:	2109883a 	add	r4,r4,r4
    12cc:	1105883a 	add	r2,r2,r4
    12d0:	11400017 	ldw	r5,0(r2)
    12d4:	d1202917 	ldw	r4,-32604(gp)
    12d8:	00800074 	movhi	r2,1
    12dc:	10829b04 	addi	r2,r2,2668
    12e0:	2109883a 	add	r4,r4,r4
    12e4:	2109883a 	add	r4,r4,r4
    12e8:	1105883a 	add	r2,r2,r4
    12ec:	10800017 	ldw	r2,0(r2)
    12f0:	2889883a 	add	r4,r5,r2
    12f4:	00800074 	movhi	r2,1
    12f8:	10829f04 	addi	r2,r2,2684
    12fc:	18c7883a 	add	r3,r3,r3
    1300:	18c7883a 	add	r3,r3,r3
    1304:	10c5883a 	add	r2,r2,r3
    1308:	11000015 	stw	r4,0(r2)

		if (pwm_counter[pwm_addr0] > 60000)
    130c:	d0e02917 	ldw	r3,-32604(gp)
    1310:	00800074 	movhi	r2,1
    1314:	10829f04 	addi	r2,r2,2684
    1318:	18c7883a 	add	r3,r3,r3
    131c:	18c7883a 	add	r3,r3,r3
    1320:	10c5883a 	add	r2,r2,r3
    1324:	10800017 	ldw	r2,0(r2)
    1328:	00fa9814 	movui	r3,60000
    132c:	1880100e 	bge	r3,r2,1370 <isr_timer0+0x120>
		{
			pwm_direction[pwm_addr0] = -1;
    1330:	d0e02917 	ldw	r3,-32604(gp)
    1334:	00800074 	movhi	r2,1
    1338:	10829b04 	addi	r2,r2,2668
    133c:	18c7883a 	add	r3,r3,r3
    1340:	18c7883a 	add	r3,r3,r3
    1344:	10c5883a 	add	r2,r2,r3
    1348:	00ffffc4 	movi	r3,-1
    134c:	10c00015 	stw	r3,0(r2)

			pwm_addr0++;
    1350:	d0a02917 	ldw	r2,-32604(gp)
    1354:	10800044 	addi	r2,r2,1
    1358:	d0a02915 	stw	r2,-32604(gp)
			if (pwm_addr0 > 1)
    135c:	d0a02917 	ldw	r2,-32604(gp)
    1360:	10800090 	cmplti	r2,r2,2
    1364:	1000121e 	bne	r2,zero,13b0 <isr_timer0+0x160>
				pwm_addr0 = 0;
    1368:	d0202915 	stw	zero,-32604(gp)
    136c:	00001006 	br	13b0 <isr_timer0+0x160>
			}
		else if (pwm_counter[pwm_addr0] < 0)
    1370:	d0e02917 	ldw	r3,-32604(gp)
    1374:	00800074 	movhi	r2,1
    1378:	10829f04 	addi	r2,r2,2684
    137c:	18c7883a 	add	r3,r3,r3
    1380:	18c7883a 	add	r3,r3,r3
    1384:	10c5883a 	add	r2,r2,r3
    1388:	10800017 	ldw	r2,0(r2)
    138c:	1000080e 	bge	r2,zero,13b0 <isr_timer0+0x160>
		{
			pwm_direction[pwm_addr0] = 1;
    1390:	d0e02917 	ldw	r3,-32604(gp)
    1394:	00800074 	movhi	r2,1
    1398:	10829b04 	addi	r2,r2,2668
    139c:	18c7883a 	add	r3,r3,r3
    13a0:	18c7883a 	add	r3,r3,r3
    13a4:	10c5883a 	add	r2,r2,r3
    13a8:	00c00044 	movi	r3,1
    13ac:	10c00015 	stw	r3,0(r2)
		}
		pwm_interval0 = 0;
    13b0:	d0202a15 	stw	zero,-32600(gp)
	}

	pwm_interval1++;
    13b4:	d0a02b17 	ldw	r2,-32596(gp)
    13b8:	10800044 	addi	r2,r2,1
    13bc:	d0a02b15 	stw	r2,-32596(gp)
	if (pwm_interval1 > 2)
    13c0:	d0a02b17 	ldw	r2,-32596(gp)
    13c4:	108000d0 	cmplti	r2,r2,3
    13c8:	1000511e 	bne	r2,zero,1510 <isr_timer0+0x2c0>
	{
		IOWR(AVALON_PWM_0_BASE, pwm_addr1, pwm_counter[pwm_addr1]);
    13cc:	d0a00d17 	ldw	r2,-32716(gp)
    13d0:	1085883a 	add	r2,r2,r2
    13d4:	1085883a 	add	r2,r2,r2
    13d8:	1007883a 	mov	r3,r2
    13dc:	00810834 	movhi	r2,1056
    13e0:	10869004 	addi	r2,r2,6720
    13e4:	1889883a 	add	r4,r3,r2
    13e8:	d0e00d17 	ldw	r3,-32716(gp)
    13ec:	00800074 	movhi	r2,1
    13f0:	10829f04 	addi	r2,r2,2684
    13f4:	18c7883a 	add	r3,r3,r3
    13f8:	18c7883a 	add	r3,r3,r3
    13fc:	10c5883a 	add	r2,r2,r3
    1400:	10800017 	ldw	r2,0(r2)
    1404:	20800035 	stwio	r2,0(r4)
		pwm_counter[pwm_addr1] += pwm_direction[pwm_addr1];
    1408:	d0e00d17 	ldw	r3,-32716(gp)
    140c:	d1200d17 	ldw	r4,-32716(gp)
    1410:	00800074 	movhi	r2,1
    1414:	10829f04 	addi	r2,r2,2684
    1418:	2109883a 	add	r4,r4,r4
    141c:	2109883a 	add	r4,r4,r4
    1420:	1105883a 	add	r2,r2,r4
    1424:	11400017 	ldw	r5,0(r2)
    1428:	d1200d17 	ldw	r4,-32716(gp)
    142c:	00800074 	movhi	r2,1
    1430:	10829b04 	addi	r2,r2,2668
    1434:	2109883a 	add	r4,r4,r4
    1438:	2109883a 	add	r4,r4,r4
    143c:	1105883a 	add	r2,r2,r4
    1440:	10800017 	ldw	r2,0(r2)
    1444:	2889883a 	add	r4,r5,r2
    1448:	00800074 	movhi	r2,1
    144c:	10829f04 	addi	r2,r2,2684
    1450:	18c7883a 	add	r3,r3,r3
    1454:	18c7883a 	add	r3,r3,r3
    1458:	10c5883a 	add	r2,r2,r3
    145c:	11000015 	stw	r4,0(r2)

		if (pwm_counter[pwm_addr1] > 59000)
    1460:	d0e00d17 	ldw	r3,-32716(gp)
    1464:	00800074 	movhi	r2,1
    1468:	10829f04 	addi	r2,r2,2684
    146c:	18c7883a 	add	r3,r3,r3
    1470:	18c7883a 	add	r3,r3,r3
    1474:	10c5883a 	add	r2,r2,r3
    1478:	10800017 	ldw	r2,0(r2)
    147c:	00f99e14 	movui	r3,59000
    1480:	1880110e 	bge	r3,r2,14c8 <isr_timer0+0x278>
		{
			pwm_direction[pwm_addr1] = -1;
    1484:	d0e00d17 	ldw	r3,-32716(gp)
    1488:	00800074 	movhi	r2,1
    148c:	10829b04 	addi	r2,r2,2668
    1490:	18c7883a 	add	r3,r3,r3
    1494:	18c7883a 	add	r3,r3,r3
    1498:	10c5883a 	add	r2,r2,r3
    149c:	00ffffc4 	movi	r3,-1
    14a0:	10c00015 	stw	r3,0(r2)

			pwm_addr1++;
    14a4:	d0a00d17 	ldw	r2,-32716(gp)
    14a8:	10800044 	addi	r2,r2,1
    14ac:	d0a00d15 	stw	r2,-32716(gp)
			if (pwm_addr1 > 3)
    14b0:	d0a00d17 	ldw	r2,-32716(gp)
    14b4:	10800110 	cmplti	r2,r2,4
    14b8:	1000141e 	bne	r2,zero,150c <isr_timer0+0x2bc>
				pwm_addr1 = 2;
    14bc:	00800084 	movi	r2,2
    14c0:	d0a00d15 	stw	r2,-32716(gp)
    14c4:	00001106 	br	150c <isr_timer0+0x2bc>
		}
		else if (pwm_counter[pwm_addr1] < 2000)
    14c8:	d0e00d17 	ldw	r3,-32716(gp)
    14cc:	00800074 	movhi	r2,1
    14d0:	10829f04 	addi	r2,r2,2684
    14d4:	18c7883a 	add	r3,r3,r3
    14d8:	18c7883a 	add	r3,r3,r3
    14dc:	10c5883a 	add	r2,r2,r3
    14e0:	10800017 	ldw	r2,0(r2)
    14e4:	1081f408 	cmpgei	r2,r2,2000
    14e8:	1000081e 	bne	r2,zero,150c <isr_timer0+0x2bc>
		{
			pwm_direction[pwm_addr1] = 1;
    14ec:	d0e00d17 	ldw	r3,-32716(gp)
    14f0:	00800074 	movhi	r2,1
    14f4:	10829b04 	addi	r2,r2,2668
    14f8:	18c7883a 	add	r3,r3,r3
    14fc:	18c7883a 	add	r3,r3,r3
    1500:	10c5883a 	add	r2,r2,r3
    1504:	00c00044 	movi	r3,1
    1508:	10c00015 	stw	r3,0(r2)
		}
		pwm_interval1 = 0;
    150c:	d0202b15 	stw	zero,-32596(gp)
	}

	IOWR_ALTERA_AVALON_TIMER_STATUS(TIMER_0_BASE, 0);
    1510:	0007883a 	mov	r3,zero
    1514:	00810834 	movhi	r2,1056
    1518:	10868804 	addi	r2,r2,6688
    151c:	10c00035 	stwio	r3,0(r2)
}
    1520:	0001883a 	nop
    1524:	e037883a 	mov	sp,fp
    1528:	df000017 	ldw	fp,0(sp)
    152c:	dec00104 	addi	sp,sp,4
    1530:	f800283a 	ret

00001534 <dma_rx_done1>:

static void dma_rx_done1(void *handle, void *data)
{
    1534:	defffd04 	addi	sp,sp,-12
    1538:	df000215 	stw	fp,8(sp)
    153c:	df000204 	addi	fp,sp,8
    1540:	e13ffe15 	stw	r4,-8(fp)
    1544:	e17fff15 	stw	r5,-4(fp)
	rx_done1++;
    1548:	d0a02817 	ldw	r2,-32608(gp)
    154c:	10800044 	addi	r2,r2,1
    1550:	d0a02815 	stw	r2,-32608(gp)
}
    1554:	0001883a 	nop
    1558:	e037883a 	mov	sp,fp
    155c:	df000017 	ldw	fp,0(sp)
    1560:	dec00104 	addi	sp,sp,4
    1564:	f800283a 	ret

00001568 <dma_rx_done>:

static void dma_rx_done(void *handle, void *data)
{
    1568:	defffa04 	addi	sp,sp,-24
    156c:	dfc00515 	stw	ra,20(sp)
    1570:	df000415 	stw	fp,16(sp)
    1574:	df000404 	addi	fp,sp,16
    1578:	e13ffe15 	stw	r4,-8(fp)
    157c:	e17fff15 	stw	r5,-4(fp)
	rx_done++;
    1580:	d0a02717 	ldw	r2,-32612(gp)
    1584:	10800044 	addi	r2,r2,1
    1588:	d0a02715 	stw	r2,-32612(gp)

	//int fifo_level = altera_avalon_fifo_read_level(FIFO_TX_BASE);
	int rc = alt_dma_txchan_send(txchan1, rx_buffer, I2S_BUF_SIZE, NULL, NULL);
    158c:	d0a02e17 	ldw	r2,-32584(gp)
    1590:	d8000015 	stw	zero,0(sp)
    1594:	000f883a 	mov	r7,zero
    1598:	01804004 	movi	r6,256
    159c:	01400074 	movhi	r5,1
    15a0:	294f1404 	addi	r5,r5,15440
    15a4:	1009883a 	mov	r4,r2
    15a8:	00007a80 	call	7a8 <alt_dma_txchan_send>
    15ac:	e0bffd15 	stw	r2,-12(fp)
	//int rc = alt_dma_txchan_send(txchan1, rx_buffer, fifo_level, NULL, NULL);
	if (rc < 0)
    15b0:	e0bffd17 	ldw	r2,-12(fp)
    15b4:	1000040e 	bge	r2,zero,15c8 <dma_rx_done+0x60>
	{
		printf("Failed to post write request, reason = %d\n", rc);
    15b8:	e17ffd17 	ldw	r5,-12(fp)
    15bc:	01000074 	movhi	r4,1
    15c0:	2100f504 	addi	r4,r4,980
    15c4:	0001bc80 	call	1bc8 <printf>
	}

	rc = alt_dma_rxchan_prepare(rxchan1, (void *)0x0, I2S_BUF_SIZE, dma_rx_done1, NULL);
    15c8:	d0a02c17 	ldw	r2,-32592(gp)
    15cc:	d8000015 	stw	zero,0(sp)
    15d0:	01c00034 	movhi	r7,0
    15d4:	39c54d04 	addi	r7,r7,5428
    15d8:	01804004 	movi	r6,256
    15dc:	000b883a 	mov	r5,zero
    15e0:	1009883a 	mov	r4,r2
    15e4:	00008100 	call	810 <alt_dma_rxchan_prepare>
    15e8:	e0bffd15 	stw	r2,-12(fp)
	//rc = alt_dma_rxchan_prepare(rxchan1, (void *)0x0, fifo_level, dma_rx_done1, NULL);
	if (rc < 0)
    15ec:	e0bffd17 	ldw	r2,-12(fp)
    15f0:	1000040e 	bge	r2,zero,1604 <dma_rx_done+0x9c>
	{
		printf("Failed to post read request, reason = %d\n", rc);
    15f4:	e17ffd17 	ldw	r5,-12(fp)
    15f8:	01000074 	movhi	r4,1
    15fc:	21010004 	addi	r4,r4,1024
    1600:	0001bc80 	call	1bc8 <printf>
	}
}
    1604:	0001883a 	nop
    1608:	e037883a 	mov	sp,fp
    160c:	dfc00117 	ldw	ra,4(sp)
    1610:	df000017 	ldw	fp,0(sp)
    1614:	dec00204 	addi	sp,sp,8
    1618:	f800283a 	ret

0000161c <fifo_callback>:

static void fifo_callback(void *context)
{
    161c:	defffa04 	addi	sp,sp,-24
    1620:	dfc00515 	stw	ra,20(sp)
    1624:	df000415 	stw	fp,16(sp)
    1628:	df000404 	addi	fp,sp,16
    162c:	e13fff15 	stw	r4,-4(fp)
	int status = altera_avalon_fifo_read_status(FIFO_RX_BASE, ALTERA_AVALON_FIFO_IENABLE_ALL);
    1630:	01400fc4 	movi	r5,63
    1634:	01010834 	movhi	r4,1056
    1638:	2106a804 	addi	r4,r4,6816
    163c:	000ed480 	call	ed48 <altera_avalon_fifo_read_status>
    1640:	e0bffd15 	stw	r2,-12(fp)
	if (status & (ALTERA_AVALON_FIFO_STATUS_AF_MSK | ALTERA_AVALON_FIFO_STATUS_F_MSK))
    1644:	e0bffd17 	ldw	r2,-12(fp)
    1648:	1080014c 	andi	r2,r2,5
    164c:	10001e26 	beq	r2,zero,16c8 <fifo_callback+0xac>
	{
		//int fifo_level = altera_avalon_fifo_read_level(FIFO_RX_BASE);
		int rc = alt_dma_txchan_send(txchan, (void *)0x0, I2S_BUF_SIZE, NULL, NULL);
    1650:	d0a02f17 	ldw	r2,-32580(gp)
    1654:	d8000015 	stw	zero,0(sp)
    1658:	000f883a 	mov	r7,zero
    165c:	01804004 	movi	r6,256
    1660:	000b883a 	mov	r5,zero
    1664:	1009883a 	mov	r4,r2
    1668:	00007a80 	call	7a8 <alt_dma_txchan_send>
    166c:	e0bffe15 	stw	r2,-8(fp)
		//int rc = alt_dma_txchan_send(txchan, (void *)0x0, fifo_level, NULL, NULL);
		if (rc < 0)
    1670:	e0bffe17 	ldw	r2,-8(fp)
    1674:	1000040e 	bge	r2,zero,1688 <fifo_callback+0x6c>
		{
			printf("Failed to post write request, reason = %d\n", rc);
    1678:	e17ffe17 	ldw	r5,-8(fp)
    167c:	01000074 	movhi	r4,1
    1680:	2100f504 	addi	r4,r4,980
    1684:	0001bc80 	call	1bc8 <printf>
		}

		rc = alt_dma_rxchan_prepare(rxchan, rx_buffer, I2S_BUF_SIZE, dma_rx_done, NULL);
    1688:	d0a02d17 	ldw	r2,-32588(gp)
    168c:	d8000015 	stw	zero,0(sp)
    1690:	01c00034 	movhi	r7,0
    1694:	39c55a04 	addi	r7,r7,5480
    1698:	01804004 	movi	r6,256
    169c:	01400074 	movhi	r5,1
    16a0:	294f1404 	addi	r5,r5,15440
    16a4:	1009883a 	mov	r4,r2
    16a8:	00008100 	call	810 <alt_dma_rxchan_prepare>
    16ac:	e0bffe15 	stw	r2,-8(fp)
		//rc = alt_dma_rxchan_prepare(rxchan, rx_buffer, fifo_level, dma_rx_done, NULL);
		if (rc < 0)
    16b0:	e0bffe17 	ldw	r2,-8(fp)
    16b4:	1000040e 	bge	r2,zero,16c8 <fifo_callback+0xac>
		{
			printf("Failed to post read request, reason = %d\n", rc);
    16b8:	e17ffe17 	ldw	r5,-8(fp)
    16bc:	01000074 	movhi	r4,1
    16c0:	21010004 	addi	r4,r4,1024
    16c4:	0001bc80 	call	1bc8 <printf>
		}

		//printf("data = %08X\n", ((int *)rx_buffer)[0]);
	}

	altera_avalon_fifo_clear_event(FIFO_RX_BASE, ALTERA_AVALON_FIFO_EVENT_ALL);
    16c8:	01400fc4 	movi	r5,63
    16cc:	01010834 	movhi	r4,1056
    16d0:	2106a804 	addi	r4,r4,6816
    16d4:	000ed840 	call	ed84 <altera_avalon_fifo_clear_event>
}
    16d8:	0001883a 	nop
    16dc:	e037883a 	mov	sp,fp
    16e0:	dfc00117 	ldw	ra,4(sp)
    16e4:	df000017 	ldw	fp,0(sp)
    16e8:	dec00204 	addi	sp,sp,8
    16ec:	f800283a 	ret

000016f0 <initDMA>:

int initDMA()
{
    16f0:	defffe04 	addi	sp,sp,-8
    16f4:	dfc00115 	stw	ra,4(sp)
    16f8:	df000015 	stw	fp,0(sp)
    16fc:	d839883a 	mov	fp,sp
	if ((txchan = alt_dma_txchan_open(DMA_RX_NAME)) == NULL)
    1700:	01000074 	movhi	r4,1
    1704:	21010b04 	addi	r4,r4,1068
    1708:	000e41c0 	call	e41c <alt_dma_txchan_open>
    170c:	d0a02f15 	stw	r2,-32580(gp)
    1710:	d0a02f17 	ldw	r2,-32580(gp)
    1714:	1000051e 	bne	r2,zero,172c <initDMA+0x3c>
	{
		printf("Failed to open transit channel\n");
    1718:	01000074 	movhi	r4,1
    171c:	21010e04 	addi	r4,r4,1080
    1720:	0001cc40 	call	1cc4 <puts>
		return -1;
    1724:	00bfffc4 	movi	r2,-1
    1728:	00002206 	br	17b4 <initDMA+0xc4>
	}

	if ((rxchan = alt_dma_rxchan_open(DMA_RX_NAME)) == NULL)
    172c:	01000074 	movhi	r4,1
    1730:	21010b04 	addi	r4,r4,1068
    1734:	000e3d00 	call	e3d0 <alt_dma_rxchan_open>
    1738:	d0a02d15 	stw	r2,-32588(gp)
    173c:	d0a02d17 	ldw	r2,-32588(gp)
    1740:	1000051e 	bne	r2,zero,1758 <initDMA+0x68>
	{
		printf("Failed to open receive channel\n");
    1744:	01000074 	movhi	r4,1
    1748:	21011604 	addi	r4,r4,1112
    174c:	0001cc40 	call	1cc4 <puts>
		return -2;
    1750:	00bfff84 	movi	r2,-2
    1754:	00001706 	br	17b4 <initDMA+0xc4>
	}

	if ((txchan1 = alt_dma_txchan_open(DMA_TX_NAME)) == NULL)
    1758:	01000074 	movhi	r4,1
    175c:	21011e04 	addi	r4,r4,1144
    1760:	000e41c0 	call	e41c <alt_dma_txchan_open>
    1764:	d0a02e15 	stw	r2,-32584(gp)
    1768:	d0a02e17 	ldw	r2,-32584(gp)
    176c:	1000051e 	bne	r2,zero,1784 <initDMA+0x94>
	{
		printf("Failed to open transit channel\n");
    1770:	01000074 	movhi	r4,1
    1774:	21010e04 	addi	r4,r4,1080
    1778:	0001cc40 	call	1cc4 <puts>
		return -3;
    177c:	00bfff44 	movi	r2,-3
    1780:	00000c06 	br	17b4 <initDMA+0xc4>
	}

	if ((rxchan1 = alt_dma_rxchan_open(DMA_TX_NAME)) == NULL)
    1784:	01000074 	movhi	r4,1
    1788:	21011e04 	addi	r4,r4,1144
    178c:	000e3d00 	call	e3d0 <alt_dma_rxchan_open>
    1790:	d0a02c15 	stw	r2,-32592(gp)
    1794:	d0a02c17 	ldw	r2,-32592(gp)
    1798:	1000051e 	bne	r2,zero,17b0 <initDMA+0xc0>
	{
		printf("Failed to open receive channel\n");
    179c:	01000074 	movhi	r4,1
    17a0:	21011604 	addi	r4,r4,1112
    17a4:	0001cc40 	call	1cc4 <puts>
		return -4;
    17a8:	00bfff04 	movi	r2,-4
    17ac:	00000106 	br	17b4 <initDMA+0xc4>
	}

	return 0;
    17b0:	0005883a 	mov	r2,zero
}
    17b4:	e037883a 	mov	sp,fp
    17b8:	dfc00117 	ldw	ra,4(sp)
    17bc:	df000017 	ldw	fp,0(sp)
    17c0:	dec00204 	addi	sp,sp,8
    17c4:	f800283a 	ret

000017c8 <initCODEC>:

int initCODEC()
{
    17c8:	defffe04 	addi	sp,sp,-8
    17cc:	dfc00115 	stw	ra,4(sp)
    17d0:	df000015 	stw	fp,0(sp)
    17d4:	d839883a 	mov	fp,sp
	//ADAU1761 RESET
	IOWR_ALTERA_AVALON_PIO_DIRECTION(PIO_4_BASE, 1);
    17d8:	00c00044 	movi	r3,1
    17dc:	00810834 	movhi	r2,1056
    17e0:	1086cd04 	addi	r2,r2,6964
    17e4:	10c00035 	stwio	r3,0(r2)
	IOWR_ALTERA_AVALON_PIO_DATA(PIO_4_BASE, 1);
    17e8:	00c00044 	movi	r3,1
    17ec:	00810834 	movhi	r2,1056
    17f0:	1086cc04 	addi	r2,r2,6960
    17f4:	10c00035 	stwio	r3,0(r2)

	i2c_setup(0x00, 0xB3);
    17f8:	01402cc4 	movi	r5,179
    17fc:	0009883a 	mov	r4,zero
    1800:	00000b40 	call	b4 <i2c_setup>
	default_download_IC_1();
    1804:	00008780 	call	878 <default_download_IC_1>

	IOWR_ALTERA_AVALON_PIO_DATA(PIO_4_BASE, 0);
    1808:	0007883a 	mov	r3,zero
    180c:	00810834 	movhi	r2,1056
    1810:	1086cc04 	addi	r2,r2,6960
    1814:	10c00035 	stwio	r3,0(r2)
	usleep(1000 * 200);
    1818:	010000f4 	movhi	r4,3
    181c:	21035004 	addi	r4,r4,3392
    1820:	000e6380 	call	e638 <usleep>
	IOWR_ALTERA_AVALON_PIO_DATA(PIO_4_BASE, 1);
    1824:	00c00044 	movi	r3,1
    1828:	00810834 	movhi	r2,1056
    182c:	1086cc04 	addi	r2,r2,6960
    1830:	10c00035 	stwio	r3,0(r2)

	default_download_IC_1();
    1834:	00008780 	call	878 <default_download_IC_1>

	return 0;
    1838:	0005883a 	mov	r2,zero
}
    183c:	e037883a 	mov	sp,fp
    1840:	dfc00117 	ldw	ra,4(sp)
    1844:	df000017 	ldw	fp,0(sp)
    1848:	dec00204 	addi	sp,sp,8
    184c:	f800283a 	ret

00001850 <main>:

int main()
{
    1850:	defffa04 	addi	sp,sp,-24
    1854:	dfc00515 	stw	ra,20(sp)
    1858:	df000415 	stw	fp,16(sp)
    185c:	df000404 	addi	fp,sp,16
	printf("Hello from Nios II\n");
    1860:	01000074 	movhi	r4,1
    1864:	21012104 	addi	r4,r4,1156
    1868:	0001cc40 	call	1cc4 <puts>

	//test reset
	IOWR(AVALON_I2S_0_BASE, 0, 0);
    186c:	0007883a 	mov	r3,zero
    1870:	00810834 	movhi	r2,1056
    1874:	1086b804 	addi	r2,r2,6880
    1878:	10c00035 	stwio	r3,0(r2)

	initDMA();
    187c:	00016f00 	call	16f0 <initDMA>
	initCODEC();
    1880:	00017c80 	call	17c8 <initCODEC>

#if 1
    IOWR_ALTERA_AVALON_PIO_DIRECTION(PIO_5_BASE, 1);
    1884:	00c00044 	movi	r3,1
    1888:	00810834 	movhi	r2,1056
    188c:	1086c904 	addi	r2,r2,6948
    1890:	10c00035 	stwio	r3,0(r2)
    IOWR_ALTERA_AVALON_PIO_DATA(PIO_5_BASE, 0x1);
    1894:	00c00044 	movi	r3,1
    1898:	00810834 	movhi	r2,1056
    189c:	1086c804 	addi	r2,r2,6944
    18a0:	10c00035 	stwio	r3,0(r2)
    IOWR_ALTERA_AVALON_PIO_DATA(PIO_2_BASE, 0x01);
    IOWR_ALTERA_AVALON_PIO_DATA(PIO_2_BASE, 0x10);
#endif

    // PMOD2
    IOWR_ALTERA_AVALON_PIO_DIRECTION(PIO_3_BASE, 0);
    18a4:	0007883a 	mov	r3,zero
    18a8:	00810834 	movhi	r2,1056
    18ac:	1086c104 	addi	r2,r2,6916
    18b0:	10c00035 	stwio	r3,0(r2)

    // ADC
    IOWR_ALTERA_AVALON_PIO_DIRECTION(PIO_6_BASE, 0);
    18b4:	0007883a 	mov	r3,zero
    18b8:	00810834 	movhi	r2,1056
    18bc:	1086bd04 	addi	r2,r2,6900
    18c0:	10c00035 	stwio	r3,0(r2)
#if 0
    IOWR_ALTERA_AVALON_PIO_DATA(PIO_0_BASE, 15);
    usleep(1000 * 1000);
#endif

    IOWR_32DIRECT(AVALON_PWM_0_BASE, 0, pwm_counter);
    18c4:	00c00074 	movhi	r3,1
    18c8:	18c29f04 	addi	r3,r3,2684
    18cc:	00810834 	movhi	r2,1056
    18d0:	10869004 	addi	r2,r2,6720
    18d4:	10c00035 	stwio	r3,0(r2)
		printf("Something is wrong...");
		return 0;
	}
#endif

	IOWR(AVALON_PWM_0_BASE, 0b100, 1);
    18d8:	00c00044 	movi	r3,1
    18dc:	00810834 	movhi	r2,1056
    18e0:	10869404 	addi	r2,r2,6736
    18e4:	10c00035 	stwio	r3,0(r2)
	IOWR(AVALON_PWM_0_BASE, 0b101, 1);
    18e8:	00c00044 	movi	r3,1
    18ec:	00810834 	movhi	r2,1056
    18f0:	10869504 	addi	r2,r2,6740
    18f4:	10c00035 	stwio	r3,0(r2)
	IOWR(AVALON_PWM_0_BASE, 0b110, 1);
    18f8:	00c00044 	movi	r3,1
    18fc:	00810834 	movhi	r2,1056
    1900:	10869604 	addi	r2,r2,6744
    1904:	10c00035 	stwio	r3,0(r2)
	IOWR(AVALON_PWM_0_BASE, 0b111, 1);
    1908:	00c00044 	movi	r3,1
    190c:	00810834 	movhi	r2,1056
    1910:	10869704 	addi	r2,r2,6748
    1914:	10c00035 	stwio	r3,0(r2)

	IOWR(AVALON_PWM_0_BASE, 0, 60000);
    1918:	00fa9814 	movui	r3,60000
    191c:	00810834 	movhi	r2,1056
    1920:	10869004 	addi	r2,r2,6720
    1924:	10c00035 	stwio	r3,0(r2)
	IOWR(AVALON_PWM_0_BASE, 1, 60000);
    1928:	00fa9814 	movui	r3,60000
    192c:	00810834 	movhi	r2,1056
    1930:	10869104 	addi	r2,r2,6724
    1934:	10c00035 	stwio	r3,0(r2)
	IOWR(AVALON_PWM_0_BASE, 2, 60000);
    1938:	00fa9814 	movui	r3,60000
    193c:	00810834 	movhi	r2,1056
    1940:	10869204 	addi	r2,r2,6728
    1944:	10c00035 	stwio	r3,0(r2)
	IOWR(AVALON_PWM_0_BASE, 3, 60000);
    1948:	00fa9814 	movui	r3,60000
    194c:	00810834 	movhi	r2,1056
    1950:	10869304 	addi	r2,r2,6732
    1954:	10c00035 	stwio	r3,0(r2)

	alt_ic_isr_register(TIMER_0_IRQ_INTERRUPT_CONTROLLER_ID,
    1958:	d8000015 	stw	zero,0(sp)
    195c:	000f883a 	mov	r7,zero
    1960:	01800034 	movhi	r6,0
    1964:	31849404 	addi	r6,r6,4688
    1968:	01400144 	movi	r5,5
    196c:	0009883a 	mov	r4,zero
    1970:	000ff580 	call	ff58 <alt_ic_isr_register>
						TIMER_0_IRQ,
						isr_timer0,
						NULL,
						NULL);

	alt_u32 count = 5000000 - 1;
    1974:	00801334 	movhi	r2,76
    1978:	1092cfc4 	addi	r2,r2,19263
    197c:	e0bffd15 	stw	r2,-12(fp)
	IOWR_ALTERA_AVALON_TIMER_PERIODL(TIMER_0_BASE, count & 0xffff);
    1980:	e0bffd17 	ldw	r2,-12(fp)
    1984:	10ffffcc 	andi	r3,r2,65535
    1988:	00810834 	movhi	r2,1056
    198c:	10868a04 	addi	r2,r2,6696
    1990:	10c00035 	stwio	r3,0(r2)
	IOWR_ALTERA_AVALON_TIMER_PERIODL(TIMER_0_BASE, (count >> 16) & 0xffff);
    1994:	e0bffd17 	ldw	r2,-12(fp)
    1998:	1004d43a 	srli	r2,r2,16
    199c:	1007883a 	mov	r3,r2
    19a0:	00810834 	movhi	r2,1056
    19a4:	10868a04 	addi	r2,r2,6696
    19a8:	10c00035 	stwio	r3,0(r2)
	IOWR_ALTERA_AVALON_TIMER_CONTROL(TIMER_0_BASE,
    19ac:	00c001c4 	movi	r3,7
    19b0:	00810834 	movhi	r2,1056
    19b4:	10868904 	addi	r2,r2,6692
    19b8:	10c00035 	stwio	r3,0(r2)
									 ALTERA_AVALON_TIMER_CONTROL_CONT_MSK |
									 ALTERA_AVALON_TIMER_CONTROL_START_MSK);


	//altera_avalon_fifo_clear_event(FIFO_0_IN_CSR_BASE, ALTERA_AVALON_FIFO_EVENT_ALL);
	int fifo_status = altera_avalon_fifo_init(FIFO_RX_BASE,
    19bc:	01c04004 	movi	r7,256
    19c0:	01800044 	movi	r6,1
    19c4:	01400144 	movi	r5,5
    19c8:	01010834 	movhi	r4,1056
    19cc:	2106a804 	addi	r4,r4,6816
    19d0:	000edf40 	call	edf4 <altera_avalon_fifo_init>
    19d4:	e0bffe15 	stw	r2,-8(fp)
#else
											  ALTERA_AVALON_FIFO_IENABLE_ALL,
#endif
											  1,
											  I2S_BUF_SIZE);
	if (fifo_status != ALTERA_AVALON_FIFO_OK)
    19d8:	e0bffe17 	ldw	r2,-8(fp)
    19dc:	10000626 	beq	r2,zero,19f8 <main+0x1a8>
	{
		printf("FIFO init Failed %d\n", fifo_status);
    19e0:	e17ffe17 	ldw	r5,-8(fp)
    19e4:	01000074 	movhi	r4,1
    19e8:	21012604 	addi	r4,r4,1176
    19ec:	0001bc80 	call	1bc8 <printf>
		return 0;
    19f0:	0005883a 	mov	r2,zero
    19f4:	00001906 	br	1a5c <main+0x20c>
	}
	alt_ic_isr_register(FIFO_RX_IRQ_INTERRUPT_CONTROLLER_ID,
    19f8:	d8000015 	stw	zero,0(sp)
    19fc:	000f883a 	mov	r7,zero
    1a00:	01800034 	movhi	r6,0
    1a04:	31858704 	addi	r6,r6,5660
    1a08:	01400084 	movi	r5,2
    1a0c:	0009883a 	mov	r4,zero
    1a10:	000ff580 	call	ff58 <alt_ic_isr_register>
						FIFO_RX_IRQ,
						fifo_callback,
						NULL,
						NULL);

	IOWR(AVALON_I2S_0_BASE, 0, 1);
    1a14:	00c00044 	movi	r3,1
    1a18:	00810834 	movhi	r2,1056
    1a1c:	1086b804 	addi	r2,r2,6880
    1a20:	10c00035 	stwio	r3,0(r2)
		//int key = alt_getchar();
		//alt_printf("\n => %c", key);

		//if (callback_count != callback_count_old)
		{
			int fifo_level = altera_avalon_fifo_read_level(FIFO_RX_BASE);
    1a24:	01010834 	movhi	r4,1056
    1a28:	2106a804 	addi	r4,r4,6816
    1a2c:	000ed7c0 	call	ed7c <altera_avalon_fifo_read_level>
    1a30:	e0bfff15 	stw	r2,-4(fp)
			printf("fifo_level => %d\n", fifo_level);
    1a34:	e17fff17 	ldw	r5,-4(fp)
    1a38:	01000074 	movhi	r4,1
    1a3c:	21012c04 	addi	r4,r4,1200
    1a40:	0001bc80 	call	1bc8 <printf>
		}

		printf("rx_done = %d\n", rx_done);
    1a44:	d0a02717 	ldw	r2,-32612(gp)
    1a48:	100b883a 	mov	r5,r2
    1a4c:	01000074 	movhi	r4,1
    1a50:	21013104 	addi	r4,r4,1220
    1a54:	0001bc80 	call	1bc8 <printf>
		//printf("data = %08X\n", ((int *)rx_buffer)[0]);
	}
    1a58:	003ff206 	br	1a24 <__reset+0xfbf01a24>

	return 0;
}
    1a5c:	e037883a 	mov	sp,fp
    1a60:	dfc00117 	ldw	ra,4(sp)
    1a64:	df000017 	ldw	fp,0(sp)
    1a68:	dec00204 	addi	sp,sp,8
    1a6c:	f800283a 	ret

00001a70 <memset>:
    1a70:	20c000cc 	andi	r3,r4,3
    1a74:	2005883a 	mov	r2,r4
    1a78:	18004426 	beq	r3,zero,1b8c <memset+0x11c>
    1a7c:	31ffffc4 	addi	r7,r6,-1
    1a80:	30004026 	beq	r6,zero,1b84 <memset+0x114>
    1a84:	2813883a 	mov	r9,r5
    1a88:	200d883a 	mov	r6,r4
    1a8c:	2007883a 	mov	r3,r4
    1a90:	00000406 	br	1aa4 <memset+0x34>
    1a94:	3a3fffc4 	addi	r8,r7,-1
    1a98:	31800044 	addi	r6,r6,1
    1a9c:	38003926 	beq	r7,zero,1b84 <memset+0x114>
    1aa0:	400f883a 	mov	r7,r8
    1aa4:	18c00044 	addi	r3,r3,1
    1aa8:	32400005 	stb	r9,0(r6)
    1aac:	1a0000cc 	andi	r8,r3,3
    1ab0:	403ff81e 	bne	r8,zero,1a94 <__reset+0xfbf01a94>
    1ab4:	010000c4 	movi	r4,3
    1ab8:	21c02d2e 	bgeu	r4,r7,1b70 <memset+0x100>
    1abc:	29003fcc 	andi	r4,r5,255
    1ac0:	200c923a 	slli	r6,r4,8
    1ac4:	3108b03a 	or	r4,r6,r4
    1ac8:	200c943a 	slli	r6,r4,16
    1acc:	218cb03a 	or	r6,r4,r6
    1ad0:	010003c4 	movi	r4,15
    1ad4:	21c0182e 	bgeu	r4,r7,1b38 <memset+0xc8>
    1ad8:	3b3ffc04 	addi	r12,r7,-16
    1adc:	6018d13a 	srli	r12,r12,4
    1ae0:	1a000104 	addi	r8,r3,4
    1ae4:	1ac00204 	addi	r11,r3,8
    1ae8:	6008913a 	slli	r4,r12,4
    1aec:	1a800304 	addi	r10,r3,12
    1af0:	1813883a 	mov	r9,r3
    1af4:	21000504 	addi	r4,r4,20
    1af8:	1909883a 	add	r4,r3,r4
    1afc:	49800015 	stw	r6,0(r9)
    1b00:	41800015 	stw	r6,0(r8)
    1b04:	59800015 	stw	r6,0(r11)
    1b08:	51800015 	stw	r6,0(r10)
    1b0c:	42000404 	addi	r8,r8,16
    1b10:	4a400404 	addi	r9,r9,16
    1b14:	5ac00404 	addi	r11,r11,16
    1b18:	52800404 	addi	r10,r10,16
    1b1c:	413ff71e 	bne	r8,r4,1afc <__reset+0xfbf01afc>
    1b20:	63000044 	addi	r12,r12,1
    1b24:	6018913a 	slli	r12,r12,4
    1b28:	39c003cc 	andi	r7,r7,15
    1b2c:	010000c4 	movi	r4,3
    1b30:	1b07883a 	add	r3,r3,r12
    1b34:	21c00e2e 	bgeu	r4,r7,1b70 <memset+0x100>
    1b38:	1813883a 	mov	r9,r3
    1b3c:	3811883a 	mov	r8,r7
    1b40:	010000c4 	movi	r4,3
    1b44:	49800015 	stw	r6,0(r9)
    1b48:	423fff04 	addi	r8,r8,-4
    1b4c:	4a400104 	addi	r9,r9,4
    1b50:	223ffc36 	bltu	r4,r8,1b44 <__reset+0xfbf01b44>
    1b54:	393fff04 	addi	r4,r7,-4
    1b58:	2008d0ba 	srli	r4,r4,2
    1b5c:	39c000cc 	andi	r7,r7,3
    1b60:	21000044 	addi	r4,r4,1
    1b64:	2109883a 	add	r4,r4,r4
    1b68:	2109883a 	add	r4,r4,r4
    1b6c:	1907883a 	add	r3,r3,r4
    1b70:	38000526 	beq	r7,zero,1b88 <memset+0x118>
    1b74:	19cf883a 	add	r7,r3,r7
    1b78:	19400005 	stb	r5,0(r3)
    1b7c:	18c00044 	addi	r3,r3,1
    1b80:	38fffd1e 	bne	r7,r3,1b78 <__reset+0xfbf01b78>
    1b84:	f800283a 	ret
    1b88:	f800283a 	ret
    1b8c:	2007883a 	mov	r3,r4
    1b90:	300f883a 	mov	r7,r6
    1b94:	003fc706 	br	1ab4 <__reset+0xfbf01ab4>

00001b98 <_printf_r>:
    1b98:	defffd04 	addi	sp,sp,-12
    1b9c:	2805883a 	mov	r2,r5
    1ba0:	dfc00015 	stw	ra,0(sp)
    1ba4:	d9800115 	stw	r6,4(sp)
    1ba8:	d9c00215 	stw	r7,8(sp)
    1bac:	21400217 	ldw	r5,8(r4)
    1bb0:	d9c00104 	addi	r7,sp,4
    1bb4:	100d883a 	mov	r6,r2
    1bb8:	0001d700 	call	1d70 <___vfprintf_internal_r>
    1bbc:	dfc00017 	ldw	ra,0(sp)
    1bc0:	dec00304 	addi	sp,sp,12
    1bc4:	f800283a 	ret

00001bc8 <printf>:
    1bc8:	defffc04 	addi	sp,sp,-16
    1bcc:	dfc00015 	stw	ra,0(sp)
    1bd0:	d9400115 	stw	r5,4(sp)
    1bd4:	d9800215 	stw	r6,8(sp)
    1bd8:	d9c00315 	stw	r7,12(sp)
    1bdc:	00800074 	movhi	r2,1
    1be0:	1089e504 	addi	r2,r2,10132
    1be4:	10800017 	ldw	r2,0(r2)
    1be8:	200b883a 	mov	r5,r4
    1bec:	d9800104 	addi	r6,sp,4
    1bf0:	11000217 	ldw	r4,8(r2)
    1bf4:	0003f680 	call	3f68 <__vfprintf_internal>
    1bf8:	dfc00017 	ldw	ra,0(sp)
    1bfc:	dec00404 	addi	sp,sp,16
    1c00:	f800283a 	ret

00001c04 <_puts_r>:
    1c04:	defff604 	addi	sp,sp,-40
    1c08:	dc000715 	stw	r16,28(sp)
    1c0c:	2021883a 	mov	r16,r4
    1c10:	2809883a 	mov	r4,r5
    1c14:	dc400815 	stw	r17,32(sp)
    1c18:	dfc00915 	stw	ra,36(sp)
    1c1c:	2823883a 	mov	r17,r5
    1c20:	0001cd80 	call	1cd8 <strlen>
    1c24:	10c00044 	addi	r3,r2,1
    1c28:	d8800115 	stw	r2,4(sp)
    1c2c:	00800074 	movhi	r2,1
    1c30:	10813504 	addi	r2,r2,1236
    1c34:	d8800215 	stw	r2,8(sp)
    1c38:	00800044 	movi	r2,1
    1c3c:	d8800315 	stw	r2,12(sp)
    1c40:	00800084 	movi	r2,2
    1c44:	dc400015 	stw	r17,0(sp)
    1c48:	d8c00615 	stw	r3,24(sp)
    1c4c:	dec00415 	stw	sp,16(sp)
    1c50:	d8800515 	stw	r2,20(sp)
    1c54:	80000226 	beq	r16,zero,1c60 <_puts_r+0x5c>
    1c58:	80800e17 	ldw	r2,56(r16)
    1c5c:	10001426 	beq	r2,zero,1cb0 <_puts_r+0xac>
    1c60:	81400217 	ldw	r5,8(r16)
    1c64:	2880030b 	ldhu	r2,12(r5)
    1c68:	10c8000c 	andi	r3,r2,8192
    1c6c:	1800061e 	bne	r3,zero,1c88 <_puts_r+0x84>
    1c70:	29001917 	ldw	r4,100(r5)
    1c74:	00f7ffc4 	movi	r3,-8193
    1c78:	10880014 	ori	r2,r2,8192
    1c7c:	20c6703a 	and	r3,r4,r3
    1c80:	2880030d 	sth	r2,12(r5)
    1c84:	28c01915 	stw	r3,100(r5)
    1c88:	d9800404 	addi	r6,sp,16
    1c8c:	8009883a 	mov	r4,r16
    1c90:	00064980 	call	6498 <__sfvwrite_r>
    1c94:	1000091e 	bne	r2,zero,1cbc <_puts_r+0xb8>
    1c98:	00800284 	movi	r2,10
    1c9c:	dfc00917 	ldw	ra,36(sp)
    1ca0:	dc400817 	ldw	r17,32(sp)
    1ca4:	dc000717 	ldw	r16,28(sp)
    1ca8:	dec00a04 	addi	sp,sp,40
    1cac:	f800283a 	ret
    1cb0:	8009883a 	mov	r4,r16
    1cb4:	00060140 	call	6014 <__sinit>
    1cb8:	003fe906 	br	1c60 <__reset+0xfbf01c60>
    1cbc:	00bfffc4 	movi	r2,-1
    1cc0:	003ff606 	br	1c9c <__reset+0xfbf01c9c>

00001cc4 <puts>:
    1cc4:	00800074 	movhi	r2,1
    1cc8:	1089e504 	addi	r2,r2,10132
    1ccc:	200b883a 	mov	r5,r4
    1cd0:	11000017 	ldw	r4,0(r2)
    1cd4:	0001c041 	jmpi	1c04 <_puts_r>

00001cd8 <strlen>:
    1cd8:	208000cc 	andi	r2,r4,3
    1cdc:	10002026 	beq	r2,zero,1d60 <strlen+0x88>
    1ce0:	20800007 	ldb	r2,0(r4)
    1ce4:	10002026 	beq	r2,zero,1d68 <strlen+0x90>
    1ce8:	2005883a 	mov	r2,r4
    1cec:	00000206 	br	1cf8 <strlen+0x20>
    1cf0:	10c00007 	ldb	r3,0(r2)
    1cf4:	18001826 	beq	r3,zero,1d58 <strlen+0x80>
    1cf8:	10800044 	addi	r2,r2,1
    1cfc:	10c000cc 	andi	r3,r2,3
    1d00:	183ffb1e 	bne	r3,zero,1cf0 <__reset+0xfbf01cf0>
    1d04:	10c00017 	ldw	r3,0(r2)
    1d08:	01ffbff4 	movhi	r7,65279
    1d0c:	39ffbfc4 	addi	r7,r7,-257
    1d10:	00ca303a 	nor	r5,zero,r3
    1d14:	01a02074 	movhi	r6,32897
    1d18:	19c7883a 	add	r3,r3,r7
    1d1c:	31a02004 	addi	r6,r6,-32640
    1d20:	1946703a 	and	r3,r3,r5
    1d24:	1986703a 	and	r3,r3,r6
    1d28:	1800091e 	bne	r3,zero,1d50 <strlen+0x78>
    1d2c:	10800104 	addi	r2,r2,4
    1d30:	10c00017 	ldw	r3,0(r2)
    1d34:	19cb883a 	add	r5,r3,r7
    1d38:	00c6303a 	nor	r3,zero,r3
    1d3c:	28c6703a 	and	r3,r5,r3
    1d40:	1986703a 	and	r3,r3,r6
    1d44:	183ff926 	beq	r3,zero,1d2c <__reset+0xfbf01d2c>
    1d48:	00000106 	br	1d50 <strlen+0x78>
    1d4c:	10800044 	addi	r2,r2,1
    1d50:	10c00007 	ldb	r3,0(r2)
    1d54:	183ffd1e 	bne	r3,zero,1d4c <__reset+0xfbf01d4c>
    1d58:	1105c83a 	sub	r2,r2,r4
    1d5c:	f800283a 	ret
    1d60:	2005883a 	mov	r2,r4
    1d64:	003fe706 	br	1d04 <__reset+0xfbf01d04>
    1d68:	0005883a 	mov	r2,zero
    1d6c:	f800283a 	ret

00001d70 <___vfprintf_internal_r>:
    1d70:	deffb804 	addi	sp,sp,-288
    1d74:	dfc04715 	stw	ra,284(sp)
    1d78:	ddc04515 	stw	r23,276(sp)
    1d7c:	dd404315 	stw	r21,268(sp)
    1d80:	d9002c15 	stw	r4,176(sp)
    1d84:	282f883a 	mov	r23,r5
    1d88:	302b883a 	mov	r21,r6
    1d8c:	d9c02d15 	stw	r7,180(sp)
    1d90:	df004615 	stw	fp,280(sp)
    1d94:	dd804415 	stw	r22,272(sp)
    1d98:	dd004215 	stw	r20,264(sp)
    1d9c:	dcc04115 	stw	r19,260(sp)
    1da0:	dc804015 	stw	r18,256(sp)
    1da4:	dc403f15 	stw	r17,252(sp)
    1da8:	dc003e15 	stw	r16,248(sp)
    1dac:	0006b880 	call	6b88 <_localeconv_r>
    1db0:	10800017 	ldw	r2,0(r2)
    1db4:	1009883a 	mov	r4,r2
    1db8:	d8803415 	stw	r2,208(sp)
    1dbc:	0001cd80 	call	1cd8 <strlen>
    1dc0:	d8803715 	stw	r2,220(sp)
    1dc4:	d8802c17 	ldw	r2,176(sp)
    1dc8:	10000226 	beq	r2,zero,1dd4 <___vfprintf_internal_r+0x64>
    1dcc:	10800e17 	ldw	r2,56(r2)
    1dd0:	1000f926 	beq	r2,zero,21b8 <___vfprintf_internal_r+0x448>
    1dd4:	b880030b 	ldhu	r2,12(r23)
    1dd8:	10c8000c 	andi	r3,r2,8192
    1ddc:	1800061e 	bne	r3,zero,1df8 <___vfprintf_internal_r+0x88>
    1de0:	b9001917 	ldw	r4,100(r23)
    1de4:	00f7ffc4 	movi	r3,-8193
    1de8:	10880014 	ori	r2,r2,8192
    1dec:	20c6703a 	and	r3,r4,r3
    1df0:	b880030d 	sth	r2,12(r23)
    1df4:	b8c01915 	stw	r3,100(r23)
    1df8:	10c0020c 	andi	r3,r2,8
    1dfc:	1800c126 	beq	r3,zero,2104 <___vfprintf_internal_r+0x394>
    1e00:	b8c00417 	ldw	r3,16(r23)
    1e04:	1800bf26 	beq	r3,zero,2104 <___vfprintf_internal_r+0x394>
    1e08:	1080068c 	andi	r2,r2,26
    1e0c:	00c00284 	movi	r3,10
    1e10:	10c0c426 	beq	r2,r3,2124 <___vfprintf_internal_r+0x3b4>
    1e14:	d8c00404 	addi	r3,sp,16
    1e18:	05000074 	movhi	r20,1
    1e1c:	d9001e04 	addi	r4,sp,120
    1e20:	a5014684 	addi	r20,r20,1306
    1e24:	d8c01e15 	stw	r3,120(sp)
    1e28:	d8002015 	stw	zero,128(sp)
    1e2c:	d8001f15 	stw	zero,124(sp)
    1e30:	d8003315 	stw	zero,204(sp)
    1e34:	d8003615 	stw	zero,216(sp)
    1e38:	d8003815 	stw	zero,224(sp)
    1e3c:	1811883a 	mov	r8,r3
    1e40:	d8003915 	stw	zero,228(sp)
    1e44:	d8003a15 	stw	zero,232(sp)
    1e48:	d8002f15 	stw	zero,188(sp)
    1e4c:	d9002815 	stw	r4,160(sp)
    1e50:	a8800007 	ldb	r2,0(r21)
    1e54:	10027b26 	beq	r2,zero,2844 <___vfprintf_internal_r+0xad4>
    1e58:	00c00944 	movi	r3,37
    1e5c:	a821883a 	mov	r16,r21
    1e60:	10c0021e 	bne	r2,r3,1e6c <___vfprintf_internal_r+0xfc>
    1e64:	00001406 	br	1eb8 <___vfprintf_internal_r+0x148>
    1e68:	10c00326 	beq	r2,r3,1e78 <___vfprintf_internal_r+0x108>
    1e6c:	84000044 	addi	r16,r16,1
    1e70:	80800007 	ldb	r2,0(r16)
    1e74:	103ffc1e 	bne	r2,zero,1e68 <__reset+0xfbf01e68>
    1e78:	8563c83a 	sub	r17,r16,r21
    1e7c:	88000e26 	beq	r17,zero,1eb8 <___vfprintf_internal_r+0x148>
    1e80:	d8c02017 	ldw	r3,128(sp)
    1e84:	d8801f17 	ldw	r2,124(sp)
    1e88:	45400015 	stw	r21,0(r8)
    1e8c:	1c47883a 	add	r3,r3,r17
    1e90:	10800044 	addi	r2,r2,1
    1e94:	d8c02015 	stw	r3,128(sp)
    1e98:	44400115 	stw	r17,4(r8)
    1e9c:	d8801f15 	stw	r2,124(sp)
    1ea0:	00c001c4 	movi	r3,7
    1ea4:	1880a716 	blt	r3,r2,2144 <___vfprintf_internal_r+0x3d4>
    1ea8:	42000204 	addi	r8,r8,8
    1eac:	d9402f17 	ldw	r5,188(sp)
    1eb0:	2c4b883a 	add	r5,r5,r17
    1eb4:	d9402f15 	stw	r5,188(sp)
    1eb8:	80800007 	ldb	r2,0(r16)
    1ebc:	1000a826 	beq	r2,zero,2160 <___vfprintf_internal_r+0x3f0>
    1ec0:	84400047 	ldb	r17,1(r16)
    1ec4:	00bfffc4 	movi	r2,-1
    1ec8:	85400044 	addi	r21,r16,1
    1ecc:	d8002785 	stb	zero,158(sp)
    1ed0:	0007883a 	mov	r3,zero
    1ed4:	000f883a 	mov	r7,zero
    1ed8:	d8802915 	stw	r2,164(sp)
    1edc:	d8003115 	stw	zero,196(sp)
    1ee0:	0025883a 	mov	r18,zero
    1ee4:	01401604 	movi	r5,88
    1ee8:	01800244 	movi	r6,9
    1eec:	02800a84 	movi	r10,42
    1ef0:	02401b04 	movi	r9,108
    1ef4:	ad400044 	addi	r21,r21,1
    1ef8:	88bff804 	addi	r2,r17,-32
    1efc:	28830436 	bltu	r5,r2,2b10 <___vfprintf_internal_r+0xda0>
    1f00:	100490ba 	slli	r2,r2,2
    1f04:	01000034 	movhi	r4,0
    1f08:	2107c604 	addi	r4,r4,7960
    1f0c:	1105883a 	add	r2,r2,r4
    1f10:	10800017 	ldw	r2,0(r2)
    1f14:	1000683a 	jmp	r2
    1f18:	00002a30 	cmpltui	zero,zero,168
    1f1c:	00002b10 	cmplti	zero,zero,172
    1f20:	00002b10 	cmplti	zero,zero,172
    1f24:	00002a50 	cmplti	zero,zero,169
    1f28:	00002b10 	cmplti	zero,zero,172
    1f2c:	00002b10 	cmplti	zero,zero,172
    1f30:	00002b10 	cmplti	zero,zero,172
    1f34:	00002b10 	cmplti	zero,zero,172
    1f38:	00002b10 	cmplti	zero,zero,172
    1f3c:	00002b10 	cmplti	zero,zero,172
    1f40:	000021c4 	movi	zero,135
    1f44:	0000296c 	andhi	zero,zero,165
    1f48:	00002b10 	cmplti	zero,zero,172
    1f4c:	0000208c 	andi	zero,zero,130
    1f50:	000021ec 	andhi	zero,zero,135
    1f54:	00002b10 	cmplti	zero,zero,172
    1f58:	0000222c 	andhi	zero,zero,136
    1f5c:	00002238 	rdprs	zero,zero,136
    1f60:	00002238 	rdprs	zero,zero,136
    1f64:	00002238 	rdprs	zero,zero,136
    1f68:	00002238 	rdprs	zero,zero,136
    1f6c:	00002238 	rdprs	zero,zero,136
    1f70:	00002238 	rdprs	zero,zero,136
    1f74:	00002238 	rdprs	zero,zero,136
    1f78:	00002238 	rdprs	zero,zero,136
    1f7c:	00002238 	rdprs	zero,zero,136
    1f80:	00002b10 	cmplti	zero,zero,172
    1f84:	00002b10 	cmplti	zero,zero,172
    1f88:	00002b10 	cmplti	zero,zero,172
    1f8c:	00002b10 	cmplti	zero,zero,172
    1f90:	00002b10 	cmplti	zero,zero,172
    1f94:	00002b10 	cmplti	zero,zero,172
    1f98:	00002b10 	cmplti	zero,zero,172
    1f9c:	00002b10 	cmplti	zero,zero,172
    1fa0:	00002b10 	cmplti	zero,zero,172
    1fa4:	00002b10 	cmplti	zero,zero,172
    1fa8:	0000226c 	andhi	zero,zero,137
    1fac:	00002328 	cmpgeui	zero,zero,140
    1fb0:	00002b10 	cmplti	zero,zero,172
    1fb4:	00002328 	cmpgeui	zero,zero,140
    1fb8:	00002b10 	cmplti	zero,zero,172
    1fbc:	00002b10 	cmplti	zero,zero,172
    1fc0:	00002b10 	cmplti	zero,zero,172
    1fc4:	00002b10 	cmplti	zero,zero,172
    1fc8:	000023c8 	cmpgei	zero,zero,143
    1fcc:	00002b10 	cmplti	zero,zero,172
    1fd0:	00002b10 	cmplti	zero,zero,172
    1fd4:	000023d4 	movui	zero,143
    1fd8:	00002b10 	cmplti	zero,zero,172
    1fdc:	00002b10 	cmplti	zero,zero,172
    1fe0:	00002b10 	cmplti	zero,zero,172
    1fe4:	00002b10 	cmplti	zero,zero,172
    1fe8:	00002b10 	cmplti	zero,zero,172
    1fec:	0000284c 	andi	zero,zero,161
    1ff0:	00002b10 	cmplti	zero,zero,172
    1ff4:	00002b10 	cmplti	zero,zero,172
    1ff8:	000028ac 	andhi	zero,zero,162
    1ffc:	00002b10 	cmplti	zero,zero,172
    2000:	00002b10 	cmplti	zero,zero,172
    2004:	00002b10 	cmplti	zero,zero,172
    2008:	00002b10 	cmplti	zero,zero,172
    200c:	00002b10 	cmplti	zero,zero,172
    2010:	00002b10 	cmplti	zero,zero,172
    2014:	00002b10 	cmplti	zero,zero,172
    2018:	00002b10 	cmplti	zero,zero,172
    201c:	00002b10 	cmplti	zero,zero,172
    2020:	00002b10 	cmplti	zero,zero,172
    2024:	00002abc 	xorhi	zero,zero,170
    2028:	00002a5c 	xori	zero,zero,169
    202c:	00002328 	cmpgeui	zero,zero,140
    2030:	00002328 	cmpgeui	zero,zero,140
    2034:	00002328 	cmpgeui	zero,zero,140
    2038:	00002a6c 	andhi	zero,zero,169
    203c:	00002a5c 	xori	zero,zero,169
    2040:	00002b10 	cmplti	zero,zero,172
    2044:	00002b10 	cmplti	zero,zero,172
    2048:	00002a78 	rdprs	zero,zero,169
    204c:	00002b10 	cmplti	zero,zero,172
    2050:	00002a88 	cmpgei	zero,zero,170
    2054:	0000295c 	xori	zero,zero,165
    2058:	00002098 	cmpnei	zero,zero,130
    205c:	0000297c 	xorhi	zero,zero,165
    2060:	00002b10 	cmplti	zero,zero,172
    2064:	00002988 	cmpgei	zero,zero,166
    2068:	00002b10 	cmplti	zero,zero,172
    206c:	000029e4 	muli	zero,zero,167
    2070:	00002b10 	cmplti	zero,zero,172
    2074:	00002b10 	cmplti	zero,zero,172
    2078:	000029f4 	movhi	zero,167
    207c:	d9003117 	ldw	r4,196(sp)
    2080:	d8802d15 	stw	r2,180(sp)
    2084:	0109c83a 	sub	r4,zero,r4
    2088:	d9003115 	stw	r4,196(sp)
    208c:	94800114 	ori	r18,r18,4
    2090:	ac400007 	ldb	r17,0(r21)
    2094:	003f9706 	br	1ef4 <__reset+0xfbf01ef4>
    2098:	00800c04 	movi	r2,48
    209c:	d9002d17 	ldw	r4,180(sp)
    20a0:	d9402917 	ldw	r5,164(sp)
    20a4:	d8802705 	stb	r2,156(sp)
    20a8:	00801e04 	movi	r2,120
    20ac:	d8802745 	stb	r2,157(sp)
    20b0:	d8002785 	stb	zero,158(sp)
    20b4:	20c00104 	addi	r3,r4,4
    20b8:	24c00017 	ldw	r19,0(r4)
    20bc:	002d883a 	mov	r22,zero
    20c0:	90800094 	ori	r2,r18,2
    20c4:	28029a16 	blt	r5,zero,2b30 <___vfprintf_internal_r+0xdc0>
    20c8:	00bfdfc4 	movi	r2,-129
    20cc:	90a4703a 	and	r18,r18,r2
    20d0:	d8c02d15 	stw	r3,180(sp)
    20d4:	94800094 	ori	r18,r18,2
    20d8:	9802871e 	bne	r19,zero,2af8 <___vfprintf_internal_r+0xd88>
    20dc:	00800074 	movhi	r2,1
    20e0:	10813f04 	addi	r2,r2,1276
    20e4:	d8803915 	stw	r2,228(sp)
    20e8:	04401e04 	movi	r17,120
    20ec:	d8802917 	ldw	r2,164(sp)
    20f0:	0039883a 	mov	fp,zero
    20f4:	1001e926 	beq	r2,zero,289c <___vfprintf_internal_r+0xb2c>
    20f8:	0027883a 	mov	r19,zero
    20fc:	002d883a 	mov	r22,zero
    2100:	00020506 	br	2918 <___vfprintf_internal_r+0xba8>
    2104:	d9002c17 	ldw	r4,176(sp)
    2108:	b80b883a 	mov	r5,r23
    210c:	00040400 	call	4040 <__swsetup_r>
    2110:	1005ac1e 	bne	r2,zero,37c4 <___vfprintf_internal_r+0x1a54>
    2114:	b880030b 	ldhu	r2,12(r23)
    2118:	00c00284 	movi	r3,10
    211c:	1080068c 	andi	r2,r2,26
    2120:	10ff3c1e 	bne	r2,r3,1e14 <__reset+0xfbf01e14>
    2124:	b880038f 	ldh	r2,14(r23)
    2128:	103f3a16 	blt	r2,zero,1e14 <__reset+0xfbf01e14>
    212c:	d9c02d17 	ldw	r7,180(sp)
    2130:	d9002c17 	ldw	r4,176(sp)
    2134:	a80d883a 	mov	r6,r21
    2138:	b80b883a 	mov	r5,r23
    213c:	0003f840 	call	3f84 <__sbprintf>
    2140:	00001106 	br	2188 <___vfprintf_internal_r+0x418>
    2144:	d9002c17 	ldw	r4,176(sp)
    2148:	d9801e04 	addi	r6,sp,120
    214c:	b80b883a 	mov	r5,r23
    2150:	00092440 	call	9244 <__sprint_r>
    2154:	1000081e 	bne	r2,zero,2178 <___vfprintf_internal_r+0x408>
    2158:	da000404 	addi	r8,sp,16
    215c:	003f5306 	br	1eac <__reset+0xfbf01eac>
    2160:	d8802017 	ldw	r2,128(sp)
    2164:	10000426 	beq	r2,zero,2178 <___vfprintf_internal_r+0x408>
    2168:	d9002c17 	ldw	r4,176(sp)
    216c:	d9801e04 	addi	r6,sp,120
    2170:	b80b883a 	mov	r5,r23
    2174:	00092440 	call	9244 <__sprint_r>
    2178:	b880030b 	ldhu	r2,12(r23)
    217c:	1080100c 	andi	r2,r2,64
    2180:	1005901e 	bne	r2,zero,37c4 <___vfprintf_internal_r+0x1a54>
    2184:	d8802f17 	ldw	r2,188(sp)
    2188:	dfc04717 	ldw	ra,284(sp)
    218c:	df004617 	ldw	fp,280(sp)
    2190:	ddc04517 	ldw	r23,276(sp)
    2194:	dd804417 	ldw	r22,272(sp)
    2198:	dd404317 	ldw	r21,268(sp)
    219c:	dd004217 	ldw	r20,264(sp)
    21a0:	dcc04117 	ldw	r19,260(sp)
    21a4:	dc804017 	ldw	r18,256(sp)
    21a8:	dc403f17 	ldw	r17,252(sp)
    21ac:	dc003e17 	ldw	r16,248(sp)
    21b0:	dec04804 	addi	sp,sp,288
    21b4:	f800283a 	ret
    21b8:	d9002c17 	ldw	r4,176(sp)
    21bc:	00060140 	call	6014 <__sinit>
    21c0:	003f0406 	br	1dd4 <__reset+0xfbf01dd4>
    21c4:	d8802d17 	ldw	r2,180(sp)
    21c8:	d9002d17 	ldw	r4,180(sp)
    21cc:	10800017 	ldw	r2,0(r2)
    21d0:	d8803115 	stw	r2,196(sp)
    21d4:	20800104 	addi	r2,r4,4
    21d8:	d9003117 	ldw	r4,196(sp)
    21dc:	203fa716 	blt	r4,zero,207c <__reset+0xfbf0207c>
    21e0:	d8802d15 	stw	r2,180(sp)
    21e4:	ac400007 	ldb	r17,0(r21)
    21e8:	003f4206 	br	1ef4 <__reset+0xfbf01ef4>
    21ec:	ac400007 	ldb	r17,0(r21)
    21f0:	aac00044 	addi	r11,r21,1
    21f4:	8a872826 	beq	r17,r10,3e98 <___vfprintf_internal_r+0x2128>
    21f8:	88bff404 	addi	r2,r17,-48
    21fc:	0009883a 	mov	r4,zero
    2200:	30867d36 	bltu	r6,r2,3bf8 <___vfprintf_internal_r+0x1e88>
    2204:	5c400007 	ldb	r17,0(r11)
    2208:	210002a4 	muli	r4,r4,10
    220c:	5d400044 	addi	r21,r11,1
    2210:	a817883a 	mov	r11,r21
    2214:	2089883a 	add	r4,r4,r2
    2218:	88bff404 	addi	r2,r17,-48
    221c:	30bff92e 	bgeu	r6,r2,2204 <__reset+0xfbf02204>
    2220:	2005c916 	blt	r4,zero,3948 <___vfprintf_internal_r+0x1bd8>
    2224:	d9002915 	stw	r4,164(sp)
    2228:	003f3306 	br	1ef8 <__reset+0xfbf01ef8>
    222c:	94802014 	ori	r18,r18,128
    2230:	ac400007 	ldb	r17,0(r21)
    2234:	003f2f06 	br	1ef4 <__reset+0xfbf01ef4>
    2238:	a809883a 	mov	r4,r21
    223c:	d8003115 	stw	zero,196(sp)
    2240:	88bff404 	addi	r2,r17,-48
    2244:	0017883a 	mov	r11,zero
    2248:	24400007 	ldb	r17,0(r4)
    224c:	5ac002a4 	muli	r11,r11,10
    2250:	ad400044 	addi	r21,r21,1
    2254:	a809883a 	mov	r4,r21
    2258:	12d7883a 	add	r11,r2,r11
    225c:	88bff404 	addi	r2,r17,-48
    2260:	30bff92e 	bgeu	r6,r2,2248 <__reset+0xfbf02248>
    2264:	dac03115 	stw	r11,196(sp)
    2268:	003f2306 	br	1ef8 <__reset+0xfbf01ef8>
    226c:	18c03fcc 	andi	r3,r3,255
    2270:	18072b1e 	bne	r3,zero,3f20 <___vfprintf_internal_r+0x21b0>
    2274:	94800414 	ori	r18,r18,16
    2278:	9080080c 	andi	r2,r18,32
    227c:	10037b26 	beq	r2,zero,306c <___vfprintf_internal_r+0x12fc>
    2280:	d9402d17 	ldw	r5,180(sp)
    2284:	28800117 	ldw	r2,4(r5)
    2288:	2cc00017 	ldw	r19,0(r5)
    228c:	29400204 	addi	r5,r5,8
    2290:	d9402d15 	stw	r5,180(sp)
    2294:	102d883a 	mov	r22,r2
    2298:	10044b16 	blt	r2,zero,33c8 <___vfprintf_internal_r+0x1658>
    229c:	d9402917 	ldw	r5,164(sp)
    22a0:	df002783 	ldbu	fp,158(sp)
    22a4:	2803bc16 	blt	r5,zero,3198 <___vfprintf_internal_r+0x1428>
    22a8:	00ffdfc4 	movi	r3,-129
    22ac:	9d84b03a 	or	r2,r19,r22
    22b0:	90e4703a 	and	r18,r18,r3
    22b4:	10017726 	beq	r2,zero,2894 <___vfprintf_internal_r+0xb24>
    22b8:	b0038326 	beq	r22,zero,30c8 <___vfprintf_internal_r+0x1358>
    22bc:	dc402a15 	stw	r17,168(sp)
    22c0:	dc001e04 	addi	r16,sp,120
    22c4:	b023883a 	mov	r17,r22
    22c8:	402d883a 	mov	r22,r8
    22cc:	9809883a 	mov	r4,r19
    22d0:	880b883a 	mov	r5,r17
    22d4:	01800284 	movi	r6,10
    22d8:	000f883a 	mov	r7,zero
    22dc:	000b63c0 	call	b63c <__umoddi3>
    22e0:	10800c04 	addi	r2,r2,48
    22e4:	843fffc4 	addi	r16,r16,-1
    22e8:	9809883a 	mov	r4,r19
    22ec:	880b883a 	mov	r5,r17
    22f0:	80800005 	stb	r2,0(r16)
    22f4:	01800284 	movi	r6,10
    22f8:	000f883a 	mov	r7,zero
    22fc:	000b0c40 	call	b0c4 <__udivdi3>
    2300:	1027883a 	mov	r19,r2
    2304:	10c4b03a 	or	r2,r2,r3
    2308:	1823883a 	mov	r17,r3
    230c:	103fef1e 	bne	r2,zero,22cc <__reset+0xfbf022cc>
    2310:	d8c02817 	ldw	r3,160(sp)
    2314:	dc402a17 	ldw	r17,168(sp)
    2318:	b011883a 	mov	r8,r22
    231c:	1c07c83a 	sub	r3,r3,r16
    2320:	d8c02e15 	stw	r3,184(sp)
    2324:	00005906 	br	248c <___vfprintf_internal_r+0x71c>
    2328:	18c03fcc 	andi	r3,r3,255
    232c:	1806fa1e 	bne	r3,zero,3f18 <___vfprintf_internal_r+0x21a8>
    2330:	9080020c 	andi	r2,r18,8
    2334:	10048a26 	beq	r2,zero,3560 <___vfprintf_internal_r+0x17f0>
    2338:	d8c02d17 	ldw	r3,180(sp)
    233c:	d9002d17 	ldw	r4,180(sp)
    2340:	d9402d17 	ldw	r5,180(sp)
    2344:	18c00017 	ldw	r3,0(r3)
    2348:	21000117 	ldw	r4,4(r4)
    234c:	29400204 	addi	r5,r5,8
    2350:	d8c03615 	stw	r3,216(sp)
    2354:	d9003815 	stw	r4,224(sp)
    2358:	d9402d15 	stw	r5,180(sp)
    235c:	d9003617 	ldw	r4,216(sp)
    2360:	d9403817 	ldw	r5,224(sp)
    2364:	da003d15 	stw	r8,244(sp)
    2368:	04000044 	movi	r16,1
    236c:	0008e680 	call	8e68 <__fpclassifyd>
    2370:	da003d17 	ldw	r8,244(sp)
    2374:	14041f1e 	bne	r2,r16,33f4 <___vfprintf_internal_r+0x1684>
    2378:	d9003617 	ldw	r4,216(sp)
    237c:	d9403817 	ldw	r5,224(sp)
    2380:	000d883a 	mov	r6,zero
    2384:	000f883a 	mov	r7,zero
    2388:	000d0200 	call	d020 <__ledf2>
    238c:	da003d17 	ldw	r8,244(sp)
    2390:	1005be16 	blt	r2,zero,3a8c <___vfprintf_internal_r+0x1d1c>
    2394:	df002783 	ldbu	fp,158(sp)
    2398:	008011c4 	movi	r2,71
    239c:	1445330e 	bge	r2,r17,386c <___vfprintf_internal_r+0x1afc>
    23a0:	04000074 	movhi	r16,1
    23a4:	84013704 	addi	r16,r16,1244
    23a8:	00c000c4 	movi	r3,3
    23ac:	00bfdfc4 	movi	r2,-129
    23b0:	d8c02a15 	stw	r3,168(sp)
    23b4:	90a4703a 	and	r18,r18,r2
    23b8:	d8c02e15 	stw	r3,184(sp)
    23bc:	d8002915 	stw	zero,164(sp)
    23c0:	d8003215 	stw	zero,200(sp)
    23c4:	00003706 	br	24a4 <___vfprintf_internal_r+0x734>
    23c8:	94800214 	ori	r18,r18,8
    23cc:	ac400007 	ldb	r17,0(r21)
    23d0:	003ec806 	br	1ef4 <__reset+0xfbf01ef4>
    23d4:	18c03fcc 	andi	r3,r3,255
    23d8:	1806db1e 	bne	r3,zero,3f48 <___vfprintf_internal_r+0x21d8>
    23dc:	94800414 	ori	r18,r18,16
    23e0:	9080080c 	andi	r2,r18,32
    23e4:	1002d826 	beq	r2,zero,2f48 <___vfprintf_internal_r+0x11d8>
    23e8:	d9402d17 	ldw	r5,180(sp)
    23ec:	d8c02917 	ldw	r3,164(sp)
    23f0:	d8002785 	stb	zero,158(sp)
    23f4:	28800204 	addi	r2,r5,8
    23f8:	2cc00017 	ldw	r19,0(r5)
    23fc:	2d800117 	ldw	r22,4(r5)
    2400:	18048f16 	blt	r3,zero,3640 <___vfprintf_internal_r+0x18d0>
    2404:	013fdfc4 	movi	r4,-129
    2408:	9d86b03a 	or	r3,r19,r22
    240c:	d8802d15 	stw	r2,180(sp)
    2410:	9124703a 	and	r18,r18,r4
    2414:	1802d91e 	bne	r3,zero,2f7c <___vfprintf_internal_r+0x120c>
    2418:	d8c02917 	ldw	r3,164(sp)
    241c:	0039883a 	mov	fp,zero
    2420:	1805c326 	beq	r3,zero,3b30 <___vfprintf_internal_r+0x1dc0>
    2424:	0027883a 	mov	r19,zero
    2428:	002d883a 	mov	r22,zero
    242c:	dc001e04 	addi	r16,sp,120
    2430:	9806d0fa 	srli	r3,r19,3
    2434:	b008977a 	slli	r4,r22,29
    2438:	b02cd0fa 	srli	r22,r22,3
    243c:	9cc001cc 	andi	r19,r19,7
    2440:	98800c04 	addi	r2,r19,48
    2444:	843fffc4 	addi	r16,r16,-1
    2448:	20e6b03a 	or	r19,r4,r3
    244c:	80800005 	stb	r2,0(r16)
    2450:	9d86b03a 	or	r3,r19,r22
    2454:	183ff61e 	bne	r3,zero,2430 <__reset+0xfbf02430>
    2458:	90c0004c 	andi	r3,r18,1
    245c:	18013b26 	beq	r3,zero,294c <___vfprintf_internal_r+0xbdc>
    2460:	10803fcc 	andi	r2,r2,255
    2464:	1080201c 	xori	r2,r2,128
    2468:	10bfe004 	addi	r2,r2,-128
    246c:	00c00c04 	movi	r3,48
    2470:	10c13626 	beq	r2,r3,294c <___vfprintf_internal_r+0xbdc>
    2474:	80ffffc5 	stb	r3,-1(r16)
    2478:	d8c02817 	ldw	r3,160(sp)
    247c:	80bfffc4 	addi	r2,r16,-1
    2480:	1021883a 	mov	r16,r2
    2484:	1887c83a 	sub	r3,r3,r2
    2488:	d8c02e15 	stw	r3,184(sp)
    248c:	d8802e17 	ldw	r2,184(sp)
    2490:	d9002917 	ldw	r4,164(sp)
    2494:	1100010e 	bge	r2,r4,249c <___vfprintf_internal_r+0x72c>
    2498:	2005883a 	mov	r2,r4
    249c:	d8802a15 	stw	r2,168(sp)
    24a0:	d8003215 	stw	zero,200(sp)
    24a4:	e7003fcc 	andi	fp,fp,255
    24a8:	e700201c 	xori	fp,fp,128
    24ac:	e73fe004 	addi	fp,fp,-128
    24b0:	e0000326 	beq	fp,zero,24c0 <___vfprintf_internal_r+0x750>
    24b4:	d8c02a17 	ldw	r3,168(sp)
    24b8:	18c00044 	addi	r3,r3,1
    24bc:	d8c02a15 	stw	r3,168(sp)
    24c0:	90c0008c 	andi	r3,r18,2
    24c4:	d8c02b15 	stw	r3,172(sp)
    24c8:	18000326 	beq	r3,zero,24d8 <___vfprintf_internal_r+0x768>
    24cc:	d8c02a17 	ldw	r3,168(sp)
    24d0:	18c00084 	addi	r3,r3,2
    24d4:	d8c02a15 	stw	r3,168(sp)
    24d8:	90c0210c 	andi	r3,r18,132
    24dc:	d8c03015 	stw	r3,192(sp)
    24e0:	1801a31e 	bne	r3,zero,2b70 <___vfprintf_internal_r+0xe00>
    24e4:	d9003117 	ldw	r4,196(sp)
    24e8:	d8c02a17 	ldw	r3,168(sp)
    24ec:	20e7c83a 	sub	r19,r4,r3
    24f0:	04c19f0e 	bge	zero,r19,2b70 <___vfprintf_internal_r+0xe00>
    24f4:	02400404 	movi	r9,16
    24f8:	d8c02017 	ldw	r3,128(sp)
    24fc:	d8801f17 	ldw	r2,124(sp)
    2500:	4cc50d0e 	bge	r9,r19,3938 <___vfprintf_internal_r+0x1bc8>
    2504:	01400074 	movhi	r5,1
    2508:	29414a84 	addi	r5,r5,1322
    250c:	dc403b15 	stw	r17,236(sp)
    2510:	d9403515 	stw	r5,212(sp)
    2514:	9823883a 	mov	r17,r19
    2518:	482d883a 	mov	r22,r9
    251c:	9027883a 	mov	r19,r18
    2520:	070001c4 	movi	fp,7
    2524:	8025883a 	mov	r18,r16
    2528:	dc002c17 	ldw	r16,176(sp)
    252c:	00000306 	br	253c <___vfprintf_internal_r+0x7cc>
    2530:	8c7ffc04 	addi	r17,r17,-16
    2534:	42000204 	addi	r8,r8,8
    2538:	b440130e 	bge	r22,r17,2588 <___vfprintf_internal_r+0x818>
    253c:	01000074 	movhi	r4,1
    2540:	18c00404 	addi	r3,r3,16
    2544:	10800044 	addi	r2,r2,1
    2548:	21014a84 	addi	r4,r4,1322
    254c:	41000015 	stw	r4,0(r8)
    2550:	45800115 	stw	r22,4(r8)
    2554:	d8c02015 	stw	r3,128(sp)
    2558:	d8801f15 	stw	r2,124(sp)
    255c:	e0bff40e 	bge	fp,r2,2530 <__reset+0xfbf02530>
    2560:	d9801e04 	addi	r6,sp,120
    2564:	b80b883a 	mov	r5,r23
    2568:	8009883a 	mov	r4,r16
    256c:	00092440 	call	9244 <__sprint_r>
    2570:	103f011e 	bne	r2,zero,2178 <__reset+0xfbf02178>
    2574:	8c7ffc04 	addi	r17,r17,-16
    2578:	d8c02017 	ldw	r3,128(sp)
    257c:	d8801f17 	ldw	r2,124(sp)
    2580:	da000404 	addi	r8,sp,16
    2584:	b47fed16 	blt	r22,r17,253c <__reset+0xfbf0253c>
    2588:	9021883a 	mov	r16,r18
    258c:	9825883a 	mov	r18,r19
    2590:	8827883a 	mov	r19,r17
    2594:	dc403b17 	ldw	r17,236(sp)
    2598:	d9403517 	ldw	r5,212(sp)
    259c:	98c7883a 	add	r3,r19,r3
    25a0:	10800044 	addi	r2,r2,1
    25a4:	41400015 	stw	r5,0(r8)
    25a8:	44c00115 	stw	r19,4(r8)
    25ac:	d8c02015 	stw	r3,128(sp)
    25b0:	d8801f15 	stw	r2,124(sp)
    25b4:	010001c4 	movi	r4,7
    25b8:	2082a316 	blt	r4,r2,3048 <___vfprintf_internal_r+0x12d8>
    25bc:	df002787 	ldb	fp,158(sp)
    25c0:	42000204 	addi	r8,r8,8
    25c4:	e0000c26 	beq	fp,zero,25f8 <___vfprintf_internal_r+0x888>
    25c8:	d8801f17 	ldw	r2,124(sp)
    25cc:	d9002784 	addi	r4,sp,158
    25d0:	18c00044 	addi	r3,r3,1
    25d4:	10800044 	addi	r2,r2,1
    25d8:	41000015 	stw	r4,0(r8)
    25dc:	01000044 	movi	r4,1
    25e0:	41000115 	stw	r4,4(r8)
    25e4:	d8c02015 	stw	r3,128(sp)
    25e8:	d8801f15 	stw	r2,124(sp)
    25ec:	010001c4 	movi	r4,7
    25f0:	20823c16 	blt	r4,r2,2ee4 <___vfprintf_internal_r+0x1174>
    25f4:	42000204 	addi	r8,r8,8
    25f8:	d8802b17 	ldw	r2,172(sp)
    25fc:	10000c26 	beq	r2,zero,2630 <___vfprintf_internal_r+0x8c0>
    2600:	d8801f17 	ldw	r2,124(sp)
    2604:	d9002704 	addi	r4,sp,156
    2608:	18c00084 	addi	r3,r3,2
    260c:	10800044 	addi	r2,r2,1
    2610:	41000015 	stw	r4,0(r8)
    2614:	01000084 	movi	r4,2
    2618:	41000115 	stw	r4,4(r8)
    261c:	d8c02015 	stw	r3,128(sp)
    2620:	d8801f15 	stw	r2,124(sp)
    2624:	010001c4 	movi	r4,7
    2628:	20823616 	blt	r4,r2,2f04 <___vfprintf_internal_r+0x1194>
    262c:	42000204 	addi	r8,r8,8
    2630:	d9003017 	ldw	r4,192(sp)
    2634:	00802004 	movi	r2,128
    2638:	20819926 	beq	r4,r2,2ca0 <___vfprintf_internal_r+0xf30>
    263c:	d9402917 	ldw	r5,164(sp)
    2640:	d8802e17 	ldw	r2,184(sp)
    2644:	28adc83a 	sub	r22,r5,r2
    2648:	0580310e 	bge	zero,r22,2710 <___vfprintf_internal_r+0x9a0>
    264c:	07000404 	movi	fp,16
    2650:	d8801f17 	ldw	r2,124(sp)
    2654:	e584140e 	bge	fp,r22,36a8 <___vfprintf_internal_r+0x1938>
    2658:	01400074 	movhi	r5,1
    265c:	29414684 	addi	r5,r5,1306
    2660:	dc402915 	stw	r17,164(sp)
    2664:	d9402b15 	stw	r5,172(sp)
    2668:	b023883a 	mov	r17,r22
    266c:	04c001c4 	movi	r19,7
    2670:	a82d883a 	mov	r22,r21
    2674:	902b883a 	mov	r21,r18
    2678:	8025883a 	mov	r18,r16
    267c:	dc002c17 	ldw	r16,176(sp)
    2680:	00000306 	br	2690 <___vfprintf_internal_r+0x920>
    2684:	8c7ffc04 	addi	r17,r17,-16
    2688:	42000204 	addi	r8,r8,8
    268c:	e440110e 	bge	fp,r17,26d4 <___vfprintf_internal_r+0x964>
    2690:	18c00404 	addi	r3,r3,16
    2694:	10800044 	addi	r2,r2,1
    2698:	45000015 	stw	r20,0(r8)
    269c:	47000115 	stw	fp,4(r8)
    26a0:	d8c02015 	stw	r3,128(sp)
    26a4:	d8801f15 	stw	r2,124(sp)
    26a8:	98bff60e 	bge	r19,r2,2684 <__reset+0xfbf02684>
    26ac:	d9801e04 	addi	r6,sp,120
    26b0:	b80b883a 	mov	r5,r23
    26b4:	8009883a 	mov	r4,r16
    26b8:	00092440 	call	9244 <__sprint_r>
    26bc:	103eae1e 	bne	r2,zero,2178 <__reset+0xfbf02178>
    26c0:	8c7ffc04 	addi	r17,r17,-16
    26c4:	d8c02017 	ldw	r3,128(sp)
    26c8:	d8801f17 	ldw	r2,124(sp)
    26cc:	da000404 	addi	r8,sp,16
    26d0:	e47fef16 	blt	fp,r17,2690 <__reset+0xfbf02690>
    26d4:	9021883a 	mov	r16,r18
    26d8:	a825883a 	mov	r18,r21
    26dc:	b02b883a 	mov	r21,r22
    26e0:	882d883a 	mov	r22,r17
    26e4:	dc402917 	ldw	r17,164(sp)
    26e8:	d9002b17 	ldw	r4,172(sp)
    26ec:	1d87883a 	add	r3,r3,r22
    26f0:	10800044 	addi	r2,r2,1
    26f4:	41000015 	stw	r4,0(r8)
    26f8:	45800115 	stw	r22,4(r8)
    26fc:	d8c02015 	stw	r3,128(sp)
    2700:	d8801f15 	stw	r2,124(sp)
    2704:	010001c4 	movi	r4,7
    2708:	2081ee16 	blt	r4,r2,2ec4 <___vfprintf_internal_r+0x1154>
    270c:	42000204 	addi	r8,r8,8
    2710:	9080400c 	andi	r2,r18,256
    2714:	1001181e 	bne	r2,zero,2b78 <___vfprintf_internal_r+0xe08>
    2718:	d9402e17 	ldw	r5,184(sp)
    271c:	d8801f17 	ldw	r2,124(sp)
    2720:	44000015 	stw	r16,0(r8)
    2724:	1947883a 	add	r3,r3,r5
    2728:	10800044 	addi	r2,r2,1
    272c:	41400115 	stw	r5,4(r8)
    2730:	d8c02015 	stw	r3,128(sp)
    2734:	d8801f15 	stw	r2,124(sp)
    2738:	010001c4 	movi	r4,7
    273c:	2081d316 	blt	r4,r2,2e8c <___vfprintf_internal_r+0x111c>
    2740:	42000204 	addi	r8,r8,8
    2744:	9480010c 	andi	r18,r18,4
    2748:	90003226 	beq	r18,zero,2814 <___vfprintf_internal_r+0xaa4>
    274c:	d9403117 	ldw	r5,196(sp)
    2750:	d8802a17 	ldw	r2,168(sp)
    2754:	28a1c83a 	sub	r16,r5,r2
    2758:	04002e0e 	bge	zero,r16,2814 <___vfprintf_internal_r+0xaa4>
    275c:	04400404 	movi	r17,16
    2760:	d8801f17 	ldw	r2,124(sp)
    2764:	8c04a20e 	bge	r17,r16,39f0 <___vfprintf_internal_r+0x1c80>
    2768:	01400074 	movhi	r5,1
    276c:	29414a84 	addi	r5,r5,1322
    2770:	d9403515 	stw	r5,212(sp)
    2774:	048001c4 	movi	r18,7
    2778:	dcc02c17 	ldw	r19,176(sp)
    277c:	00000306 	br	278c <___vfprintf_internal_r+0xa1c>
    2780:	843ffc04 	addi	r16,r16,-16
    2784:	42000204 	addi	r8,r8,8
    2788:	8c00130e 	bge	r17,r16,27d8 <___vfprintf_internal_r+0xa68>
    278c:	01000074 	movhi	r4,1
    2790:	18c00404 	addi	r3,r3,16
    2794:	10800044 	addi	r2,r2,1
    2798:	21014a84 	addi	r4,r4,1322
    279c:	41000015 	stw	r4,0(r8)
    27a0:	44400115 	stw	r17,4(r8)
    27a4:	d8c02015 	stw	r3,128(sp)
    27a8:	d8801f15 	stw	r2,124(sp)
    27ac:	90bff40e 	bge	r18,r2,2780 <__reset+0xfbf02780>
    27b0:	d9801e04 	addi	r6,sp,120
    27b4:	b80b883a 	mov	r5,r23
    27b8:	9809883a 	mov	r4,r19
    27bc:	00092440 	call	9244 <__sprint_r>
    27c0:	103e6d1e 	bne	r2,zero,2178 <__reset+0xfbf02178>
    27c4:	843ffc04 	addi	r16,r16,-16
    27c8:	d8c02017 	ldw	r3,128(sp)
    27cc:	d8801f17 	ldw	r2,124(sp)
    27d0:	da000404 	addi	r8,sp,16
    27d4:	8c3fed16 	blt	r17,r16,278c <__reset+0xfbf0278c>
    27d8:	d9403517 	ldw	r5,212(sp)
    27dc:	1c07883a 	add	r3,r3,r16
    27e0:	10800044 	addi	r2,r2,1
    27e4:	41400015 	stw	r5,0(r8)
    27e8:	44000115 	stw	r16,4(r8)
    27ec:	d8c02015 	stw	r3,128(sp)
    27f0:	d8801f15 	stw	r2,124(sp)
    27f4:	010001c4 	movi	r4,7
    27f8:	2080060e 	bge	r4,r2,2814 <___vfprintf_internal_r+0xaa4>
    27fc:	d9002c17 	ldw	r4,176(sp)
    2800:	d9801e04 	addi	r6,sp,120
    2804:	b80b883a 	mov	r5,r23
    2808:	00092440 	call	9244 <__sprint_r>
    280c:	103e5a1e 	bne	r2,zero,2178 <__reset+0xfbf02178>
    2810:	d8c02017 	ldw	r3,128(sp)
    2814:	d8803117 	ldw	r2,196(sp)
    2818:	d9002a17 	ldw	r4,168(sp)
    281c:	1100010e 	bge	r2,r4,2824 <___vfprintf_internal_r+0xab4>
    2820:	2005883a 	mov	r2,r4
    2824:	d9402f17 	ldw	r5,188(sp)
    2828:	288b883a 	add	r5,r5,r2
    282c:	d9402f15 	stw	r5,188(sp)
    2830:	18019e1e 	bne	r3,zero,2eac <___vfprintf_internal_r+0x113c>
    2834:	a8800007 	ldb	r2,0(r21)
    2838:	d8001f15 	stw	zero,124(sp)
    283c:	da000404 	addi	r8,sp,16
    2840:	103d851e 	bne	r2,zero,1e58 <__reset+0xfbf01e58>
    2844:	a821883a 	mov	r16,r21
    2848:	003d9b06 	br	1eb8 <__reset+0xfbf01eb8>
    284c:	18c03fcc 	andi	r3,r3,255
    2850:	1805c11e 	bne	r3,zero,3f58 <___vfprintf_internal_r+0x21e8>
    2854:	94800414 	ori	r18,r18,16
    2858:	9080080c 	andi	r2,r18,32
    285c:	10020c26 	beq	r2,zero,3090 <___vfprintf_internal_r+0x1320>
    2860:	d8802d17 	ldw	r2,180(sp)
    2864:	d9002917 	ldw	r4,164(sp)
    2868:	d8002785 	stb	zero,158(sp)
    286c:	10c00204 	addi	r3,r2,8
    2870:	14c00017 	ldw	r19,0(r2)
    2874:	15800117 	ldw	r22,4(r2)
    2878:	20040f16 	blt	r4,zero,38b8 <___vfprintf_internal_r+0x1b48>
    287c:	013fdfc4 	movi	r4,-129
    2880:	9d84b03a 	or	r2,r19,r22
    2884:	d8c02d15 	stw	r3,180(sp)
    2888:	9124703a 	and	r18,r18,r4
    288c:	0039883a 	mov	fp,zero
    2890:	103e891e 	bne	r2,zero,22b8 <__reset+0xfbf022b8>
    2894:	d9002917 	ldw	r4,164(sp)
    2898:	2002c11e 	bne	r4,zero,33a0 <___vfprintf_internal_r+0x1630>
    289c:	d8002915 	stw	zero,164(sp)
    28a0:	d8002e15 	stw	zero,184(sp)
    28a4:	dc001e04 	addi	r16,sp,120
    28a8:	003ef806 	br	248c <__reset+0xfbf0248c>
    28ac:	18c03fcc 	andi	r3,r3,255
    28b0:	18059d1e 	bne	r3,zero,3f28 <___vfprintf_internal_r+0x21b8>
    28b4:	01400074 	movhi	r5,1
    28b8:	29413a04 	addi	r5,r5,1256
    28bc:	d9403915 	stw	r5,228(sp)
    28c0:	9080080c 	andi	r2,r18,32
    28c4:	10005226 	beq	r2,zero,2a10 <___vfprintf_internal_r+0xca0>
    28c8:	d8802d17 	ldw	r2,180(sp)
    28cc:	14c00017 	ldw	r19,0(r2)
    28d0:	15800117 	ldw	r22,4(r2)
    28d4:	10800204 	addi	r2,r2,8
    28d8:	d8802d15 	stw	r2,180(sp)
    28dc:	9080004c 	andi	r2,r18,1
    28e0:	10019026 	beq	r2,zero,2f24 <___vfprintf_internal_r+0x11b4>
    28e4:	9d84b03a 	or	r2,r19,r22
    28e8:	10036926 	beq	r2,zero,3690 <___vfprintf_internal_r+0x1920>
    28ec:	d8c02917 	ldw	r3,164(sp)
    28f0:	00800c04 	movi	r2,48
    28f4:	d8802705 	stb	r2,156(sp)
    28f8:	dc402745 	stb	r17,157(sp)
    28fc:	d8002785 	stb	zero,158(sp)
    2900:	90800094 	ori	r2,r18,2
    2904:	18045d16 	blt	r3,zero,3a7c <___vfprintf_internal_r+0x1d0c>
    2908:	00bfdfc4 	movi	r2,-129
    290c:	90a4703a 	and	r18,r18,r2
    2910:	94800094 	ori	r18,r18,2
    2914:	0039883a 	mov	fp,zero
    2918:	d9003917 	ldw	r4,228(sp)
    291c:	dc001e04 	addi	r16,sp,120
    2920:	988003cc 	andi	r2,r19,15
    2924:	b006973a 	slli	r3,r22,28
    2928:	2085883a 	add	r2,r4,r2
    292c:	9826d13a 	srli	r19,r19,4
    2930:	10800003 	ldbu	r2,0(r2)
    2934:	b02cd13a 	srli	r22,r22,4
    2938:	843fffc4 	addi	r16,r16,-1
    293c:	1ce6b03a 	or	r19,r3,r19
    2940:	80800005 	stb	r2,0(r16)
    2944:	9d84b03a 	or	r2,r19,r22
    2948:	103ff51e 	bne	r2,zero,2920 <__reset+0xfbf02920>
    294c:	d8c02817 	ldw	r3,160(sp)
    2950:	1c07c83a 	sub	r3,r3,r16
    2954:	d8c02e15 	stw	r3,184(sp)
    2958:	003ecc06 	br	248c <__reset+0xfbf0248c>
    295c:	18c03fcc 	andi	r3,r3,255
    2960:	183e9f26 	beq	r3,zero,23e0 <__reset+0xfbf023e0>
    2964:	d9c02785 	stb	r7,158(sp)
    2968:	003e9d06 	br	23e0 <__reset+0xfbf023e0>
    296c:	00c00044 	movi	r3,1
    2970:	01c00ac4 	movi	r7,43
    2974:	ac400007 	ldb	r17,0(r21)
    2978:	003d5e06 	br	1ef4 <__reset+0xfbf01ef4>
    297c:	94800814 	ori	r18,r18,32
    2980:	ac400007 	ldb	r17,0(r21)
    2984:	003d5b06 	br	1ef4 <__reset+0xfbf01ef4>
    2988:	d8c02d17 	ldw	r3,180(sp)
    298c:	d8002785 	stb	zero,158(sp)
    2990:	1c000017 	ldw	r16,0(r3)
    2994:	1cc00104 	addi	r19,r3,4
    2998:	80041926 	beq	r16,zero,3a00 <___vfprintf_internal_r+0x1c90>
    299c:	d9002917 	ldw	r4,164(sp)
    29a0:	2003d016 	blt	r4,zero,38e4 <___vfprintf_internal_r+0x1b74>
    29a4:	200d883a 	mov	r6,r4
    29a8:	000b883a 	mov	r5,zero
    29ac:	8009883a 	mov	r4,r16
    29b0:	da003d15 	stw	r8,244(sp)
    29b4:	00075800 	call	7580 <memchr>
    29b8:	da003d17 	ldw	r8,244(sp)
    29bc:	10045426 	beq	r2,zero,3b10 <___vfprintf_internal_r+0x1da0>
    29c0:	1405c83a 	sub	r2,r2,r16
    29c4:	d8802e15 	stw	r2,184(sp)
    29c8:	1003cc16 	blt	r2,zero,38fc <___vfprintf_internal_r+0x1b8c>
    29cc:	df002783 	ldbu	fp,158(sp)
    29d0:	d8802a15 	stw	r2,168(sp)
    29d4:	dcc02d15 	stw	r19,180(sp)
    29d8:	d8002915 	stw	zero,164(sp)
    29dc:	d8003215 	stw	zero,200(sp)
    29e0:	003eb006 	br	24a4 <__reset+0xfbf024a4>
    29e4:	18c03fcc 	andi	r3,r3,255
    29e8:	183f9b26 	beq	r3,zero,2858 <__reset+0xfbf02858>
    29ec:	d9c02785 	stb	r7,158(sp)
    29f0:	003f9906 	br	2858 <__reset+0xfbf02858>
    29f4:	18c03fcc 	andi	r3,r3,255
    29f8:	1805551e 	bne	r3,zero,3f50 <___vfprintf_internal_r+0x21e0>
    29fc:	01400074 	movhi	r5,1
    2a00:	29413f04 	addi	r5,r5,1276
    2a04:	d9403915 	stw	r5,228(sp)
    2a08:	9080080c 	andi	r2,r18,32
    2a0c:	103fae1e 	bne	r2,zero,28c8 <__reset+0xfbf028c8>
    2a10:	9080040c 	andi	r2,r18,16
    2a14:	1002de26 	beq	r2,zero,3590 <___vfprintf_internal_r+0x1820>
    2a18:	d8c02d17 	ldw	r3,180(sp)
    2a1c:	002d883a 	mov	r22,zero
    2a20:	1cc00017 	ldw	r19,0(r3)
    2a24:	18c00104 	addi	r3,r3,4
    2a28:	d8c02d15 	stw	r3,180(sp)
    2a2c:	003fab06 	br	28dc <__reset+0xfbf028dc>
    2a30:	38803fcc 	andi	r2,r7,255
    2a34:	1080201c 	xori	r2,r2,128
    2a38:	10bfe004 	addi	r2,r2,-128
    2a3c:	1002d21e 	bne	r2,zero,3588 <___vfprintf_internal_r+0x1818>
    2a40:	00c00044 	movi	r3,1
    2a44:	01c00804 	movi	r7,32
    2a48:	ac400007 	ldb	r17,0(r21)
    2a4c:	003d2906 	br	1ef4 <__reset+0xfbf01ef4>
    2a50:	94800054 	ori	r18,r18,1
    2a54:	ac400007 	ldb	r17,0(r21)
    2a58:	003d2606 	br	1ef4 <__reset+0xfbf01ef4>
    2a5c:	18c03fcc 	andi	r3,r3,255
    2a60:	183e0526 	beq	r3,zero,2278 <__reset+0xfbf02278>
    2a64:	d9c02785 	stb	r7,158(sp)
    2a68:	003e0306 	br	2278 <__reset+0xfbf02278>
    2a6c:	94801014 	ori	r18,r18,64
    2a70:	ac400007 	ldb	r17,0(r21)
    2a74:	003d1f06 	br	1ef4 <__reset+0xfbf01ef4>
    2a78:	ac400007 	ldb	r17,0(r21)
    2a7c:	8a438726 	beq	r17,r9,389c <___vfprintf_internal_r+0x1b2c>
    2a80:	94800414 	ori	r18,r18,16
    2a84:	003d1b06 	br	1ef4 <__reset+0xfbf01ef4>
    2a88:	18c03fcc 	andi	r3,r3,255
    2a8c:	1805341e 	bne	r3,zero,3f60 <___vfprintf_internal_r+0x21f0>
    2a90:	9080080c 	andi	r2,r18,32
    2a94:	1002cd26 	beq	r2,zero,35cc <___vfprintf_internal_r+0x185c>
    2a98:	d9402d17 	ldw	r5,180(sp)
    2a9c:	d9002f17 	ldw	r4,188(sp)
    2aa0:	28800017 	ldw	r2,0(r5)
    2aa4:	2007d7fa 	srai	r3,r4,31
    2aa8:	29400104 	addi	r5,r5,4
    2aac:	d9402d15 	stw	r5,180(sp)
    2ab0:	11000015 	stw	r4,0(r2)
    2ab4:	10c00115 	stw	r3,4(r2)
    2ab8:	003ce506 	br	1e50 <__reset+0xfbf01e50>
    2abc:	d8c02d17 	ldw	r3,180(sp)
    2ac0:	d9002d17 	ldw	r4,180(sp)
    2ac4:	d8002785 	stb	zero,158(sp)
    2ac8:	18800017 	ldw	r2,0(r3)
    2acc:	21000104 	addi	r4,r4,4
    2ad0:	00c00044 	movi	r3,1
    2ad4:	d8c02a15 	stw	r3,168(sp)
    2ad8:	d8801405 	stb	r2,80(sp)
    2adc:	d9002d15 	stw	r4,180(sp)
    2ae0:	d8c02e15 	stw	r3,184(sp)
    2ae4:	d8002915 	stw	zero,164(sp)
    2ae8:	d8003215 	stw	zero,200(sp)
    2aec:	dc001404 	addi	r16,sp,80
    2af0:	0039883a 	mov	fp,zero
    2af4:	003e7206 	br	24c0 <__reset+0xfbf024c0>
    2af8:	01000074 	movhi	r4,1
    2afc:	21013f04 	addi	r4,r4,1276
    2b00:	0039883a 	mov	fp,zero
    2b04:	d9003915 	stw	r4,228(sp)
    2b08:	04401e04 	movi	r17,120
    2b0c:	003f8206 	br	2918 <__reset+0xfbf02918>
    2b10:	18c03fcc 	andi	r3,r3,255
    2b14:	1805061e 	bne	r3,zero,3f30 <___vfprintf_internal_r+0x21c0>
    2b18:	883d9126 	beq	r17,zero,2160 <__reset+0xfbf02160>
    2b1c:	00c00044 	movi	r3,1
    2b20:	d8c02a15 	stw	r3,168(sp)
    2b24:	dc401405 	stb	r17,80(sp)
    2b28:	d8002785 	stb	zero,158(sp)
    2b2c:	003fec06 	br	2ae0 <__reset+0xfbf02ae0>
    2b30:	01400074 	movhi	r5,1
    2b34:	29413f04 	addi	r5,r5,1276
    2b38:	d9403915 	stw	r5,228(sp)
    2b3c:	d8c02d15 	stw	r3,180(sp)
    2b40:	1025883a 	mov	r18,r2
    2b44:	04401e04 	movi	r17,120
    2b48:	9d84b03a 	or	r2,r19,r22
    2b4c:	1000fc1e 	bne	r2,zero,2f40 <___vfprintf_internal_r+0x11d0>
    2b50:	0039883a 	mov	fp,zero
    2b54:	00800084 	movi	r2,2
    2b58:	10803fcc 	andi	r2,r2,255
    2b5c:	00c00044 	movi	r3,1
    2b60:	10c20f26 	beq	r2,r3,33a0 <___vfprintf_internal_r+0x1630>
    2b64:	00c00084 	movi	r3,2
    2b68:	10fd6326 	beq	r2,r3,20f8 <__reset+0xfbf020f8>
    2b6c:	003e2d06 	br	2424 <__reset+0xfbf02424>
    2b70:	d8c02017 	ldw	r3,128(sp)
    2b74:	003e9306 	br	25c4 <__reset+0xfbf025c4>
    2b78:	00801944 	movi	r2,101
    2b7c:	14407e0e 	bge	r2,r17,2d78 <___vfprintf_internal_r+0x1008>
    2b80:	d9003617 	ldw	r4,216(sp)
    2b84:	d9403817 	ldw	r5,224(sp)
    2b88:	000d883a 	mov	r6,zero
    2b8c:	000f883a 	mov	r7,zero
    2b90:	d8c03c15 	stw	r3,240(sp)
    2b94:	da003d15 	stw	r8,244(sp)
    2b98:	000cebc0 	call	cebc <__eqdf2>
    2b9c:	d8c03c17 	ldw	r3,240(sp)
    2ba0:	da003d17 	ldw	r8,244(sp)
    2ba4:	1000f71e 	bne	r2,zero,2f84 <___vfprintf_internal_r+0x1214>
    2ba8:	d8801f17 	ldw	r2,124(sp)
    2bac:	01000074 	movhi	r4,1
    2bb0:	21014604 	addi	r4,r4,1304
    2bb4:	18c00044 	addi	r3,r3,1
    2bb8:	10800044 	addi	r2,r2,1
    2bbc:	41000015 	stw	r4,0(r8)
    2bc0:	01000044 	movi	r4,1
    2bc4:	41000115 	stw	r4,4(r8)
    2bc8:	d8c02015 	stw	r3,128(sp)
    2bcc:	d8801f15 	stw	r2,124(sp)
    2bd0:	010001c4 	movi	r4,7
    2bd4:	2082b816 	blt	r4,r2,36b8 <___vfprintf_internal_r+0x1948>
    2bd8:	42000204 	addi	r8,r8,8
    2bdc:	d8802617 	ldw	r2,152(sp)
    2be0:	d9403317 	ldw	r5,204(sp)
    2be4:	11400216 	blt	r2,r5,2bf0 <___vfprintf_internal_r+0xe80>
    2be8:	9080004c 	andi	r2,r18,1
    2bec:	103ed526 	beq	r2,zero,2744 <__reset+0xfbf02744>
    2bf0:	d8803717 	ldw	r2,220(sp)
    2bf4:	d9003417 	ldw	r4,208(sp)
    2bf8:	d9403717 	ldw	r5,220(sp)
    2bfc:	1887883a 	add	r3,r3,r2
    2c00:	d8801f17 	ldw	r2,124(sp)
    2c04:	41000015 	stw	r4,0(r8)
    2c08:	41400115 	stw	r5,4(r8)
    2c0c:	10800044 	addi	r2,r2,1
    2c10:	d8c02015 	stw	r3,128(sp)
    2c14:	d8801f15 	stw	r2,124(sp)
    2c18:	010001c4 	movi	r4,7
    2c1c:	20832916 	blt	r4,r2,38c4 <___vfprintf_internal_r+0x1b54>
    2c20:	42000204 	addi	r8,r8,8
    2c24:	d8803317 	ldw	r2,204(sp)
    2c28:	143fffc4 	addi	r16,r2,-1
    2c2c:	043ec50e 	bge	zero,r16,2744 <__reset+0xfbf02744>
    2c30:	04400404 	movi	r17,16
    2c34:	d8801f17 	ldw	r2,124(sp)
    2c38:	8c00880e 	bge	r17,r16,2e5c <___vfprintf_internal_r+0x10ec>
    2c3c:	01400074 	movhi	r5,1
    2c40:	29414684 	addi	r5,r5,1306
    2c44:	d9402b15 	stw	r5,172(sp)
    2c48:	058001c4 	movi	r22,7
    2c4c:	dcc02c17 	ldw	r19,176(sp)
    2c50:	00000306 	br	2c60 <___vfprintf_internal_r+0xef0>
    2c54:	42000204 	addi	r8,r8,8
    2c58:	843ffc04 	addi	r16,r16,-16
    2c5c:	8c00820e 	bge	r17,r16,2e68 <___vfprintf_internal_r+0x10f8>
    2c60:	18c00404 	addi	r3,r3,16
    2c64:	10800044 	addi	r2,r2,1
    2c68:	45000015 	stw	r20,0(r8)
    2c6c:	44400115 	stw	r17,4(r8)
    2c70:	d8c02015 	stw	r3,128(sp)
    2c74:	d8801f15 	stw	r2,124(sp)
    2c78:	b0bff60e 	bge	r22,r2,2c54 <__reset+0xfbf02c54>
    2c7c:	d9801e04 	addi	r6,sp,120
    2c80:	b80b883a 	mov	r5,r23
    2c84:	9809883a 	mov	r4,r19
    2c88:	00092440 	call	9244 <__sprint_r>
    2c8c:	103d3a1e 	bne	r2,zero,2178 <__reset+0xfbf02178>
    2c90:	d8c02017 	ldw	r3,128(sp)
    2c94:	d8801f17 	ldw	r2,124(sp)
    2c98:	da000404 	addi	r8,sp,16
    2c9c:	003fee06 	br	2c58 <__reset+0xfbf02c58>
    2ca0:	d9403117 	ldw	r5,196(sp)
    2ca4:	d8802a17 	ldw	r2,168(sp)
    2ca8:	28adc83a 	sub	r22,r5,r2
    2cac:	05be630e 	bge	zero,r22,263c <__reset+0xfbf0263c>
    2cb0:	07000404 	movi	fp,16
    2cb4:	d8801f17 	ldw	r2,124(sp)
    2cb8:	e5838f0e 	bge	fp,r22,3af8 <___vfprintf_internal_r+0x1d88>
    2cbc:	01400074 	movhi	r5,1
    2cc0:	29414684 	addi	r5,r5,1306
    2cc4:	dc403015 	stw	r17,192(sp)
    2cc8:	d9402b15 	stw	r5,172(sp)
    2ccc:	b023883a 	mov	r17,r22
    2cd0:	04c001c4 	movi	r19,7
    2cd4:	a82d883a 	mov	r22,r21
    2cd8:	902b883a 	mov	r21,r18
    2cdc:	8025883a 	mov	r18,r16
    2ce0:	dc002c17 	ldw	r16,176(sp)
    2ce4:	00000306 	br	2cf4 <___vfprintf_internal_r+0xf84>
    2ce8:	8c7ffc04 	addi	r17,r17,-16
    2cec:	42000204 	addi	r8,r8,8
    2cf0:	e440110e 	bge	fp,r17,2d38 <___vfprintf_internal_r+0xfc8>
    2cf4:	18c00404 	addi	r3,r3,16
    2cf8:	10800044 	addi	r2,r2,1
    2cfc:	45000015 	stw	r20,0(r8)
    2d00:	47000115 	stw	fp,4(r8)
    2d04:	d8c02015 	stw	r3,128(sp)
    2d08:	d8801f15 	stw	r2,124(sp)
    2d0c:	98bff60e 	bge	r19,r2,2ce8 <__reset+0xfbf02ce8>
    2d10:	d9801e04 	addi	r6,sp,120
    2d14:	b80b883a 	mov	r5,r23
    2d18:	8009883a 	mov	r4,r16
    2d1c:	00092440 	call	9244 <__sprint_r>
    2d20:	103d151e 	bne	r2,zero,2178 <__reset+0xfbf02178>
    2d24:	8c7ffc04 	addi	r17,r17,-16
    2d28:	d8c02017 	ldw	r3,128(sp)
    2d2c:	d8801f17 	ldw	r2,124(sp)
    2d30:	da000404 	addi	r8,sp,16
    2d34:	e47fef16 	blt	fp,r17,2cf4 <__reset+0xfbf02cf4>
    2d38:	9021883a 	mov	r16,r18
    2d3c:	a825883a 	mov	r18,r21
    2d40:	b02b883a 	mov	r21,r22
    2d44:	882d883a 	mov	r22,r17
    2d48:	dc403017 	ldw	r17,192(sp)
    2d4c:	d9002b17 	ldw	r4,172(sp)
    2d50:	1d87883a 	add	r3,r3,r22
    2d54:	10800044 	addi	r2,r2,1
    2d58:	41000015 	stw	r4,0(r8)
    2d5c:	45800115 	stw	r22,4(r8)
    2d60:	d8c02015 	stw	r3,128(sp)
    2d64:	d8801f15 	stw	r2,124(sp)
    2d68:	010001c4 	movi	r4,7
    2d6c:	20818e16 	blt	r4,r2,33a8 <___vfprintf_internal_r+0x1638>
    2d70:	42000204 	addi	r8,r8,8
    2d74:	003e3106 	br	263c <__reset+0xfbf0263c>
    2d78:	d9403317 	ldw	r5,204(sp)
    2d7c:	00800044 	movi	r2,1
    2d80:	18c00044 	addi	r3,r3,1
    2d84:	1141530e 	bge	r2,r5,32d4 <___vfprintf_internal_r+0x1564>
    2d88:	dc401f17 	ldw	r17,124(sp)
    2d8c:	00800044 	movi	r2,1
    2d90:	40800115 	stw	r2,4(r8)
    2d94:	8c400044 	addi	r17,r17,1
    2d98:	44000015 	stw	r16,0(r8)
    2d9c:	d8c02015 	stw	r3,128(sp)
    2da0:	dc401f15 	stw	r17,124(sp)
    2da4:	008001c4 	movi	r2,7
    2da8:	14416b16 	blt	r2,r17,3358 <___vfprintf_internal_r+0x15e8>
    2dac:	42000204 	addi	r8,r8,8
    2db0:	d8803717 	ldw	r2,220(sp)
    2db4:	d9003417 	ldw	r4,208(sp)
    2db8:	8c400044 	addi	r17,r17,1
    2dbc:	10c7883a 	add	r3,r2,r3
    2dc0:	40800115 	stw	r2,4(r8)
    2dc4:	41000015 	stw	r4,0(r8)
    2dc8:	d8c02015 	stw	r3,128(sp)
    2dcc:	dc401f15 	stw	r17,124(sp)
    2dd0:	008001c4 	movi	r2,7
    2dd4:	14416916 	blt	r2,r17,337c <___vfprintf_internal_r+0x160c>
    2dd8:	45800204 	addi	r22,r8,8
    2ddc:	d9003617 	ldw	r4,216(sp)
    2de0:	d9403817 	ldw	r5,224(sp)
    2de4:	000d883a 	mov	r6,zero
    2de8:	000f883a 	mov	r7,zero
    2dec:	d8c03c15 	stw	r3,240(sp)
    2df0:	000cebc0 	call	cebc <__eqdf2>
    2df4:	d8c03c17 	ldw	r3,240(sp)
    2df8:	1000bc26 	beq	r2,zero,30ec <___vfprintf_internal_r+0x137c>
    2dfc:	d9403317 	ldw	r5,204(sp)
    2e00:	84000044 	addi	r16,r16,1
    2e04:	8c400044 	addi	r17,r17,1
    2e08:	28bfffc4 	addi	r2,r5,-1
    2e0c:	1887883a 	add	r3,r3,r2
    2e10:	b0800115 	stw	r2,4(r22)
    2e14:	b4000015 	stw	r16,0(r22)
    2e18:	d8c02015 	stw	r3,128(sp)
    2e1c:	dc401f15 	stw	r17,124(sp)
    2e20:	008001c4 	movi	r2,7
    2e24:	14414316 	blt	r2,r17,3334 <___vfprintf_internal_r+0x15c4>
    2e28:	b5800204 	addi	r22,r22,8
    2e2c:	d9003a17 	ldw	r4,232(sp)
    2e30:	df0022c4 	addi	fp,sp,139
    2e34:	8c400044 	addi	r17,r17,1
    2e38:	20c7883a 	add	r3,r4,r3
    2e3c:	b7000015 	stw	fp,0(r22)
    2e40:	b1000115 	stw	r4,4(r22)
    2e44:	d8c02015 	stw	r3,128(sp)
    2e48:	dc401f15 	stw	r17,124(sp)
    2e4c:	008001c4 	movi	r2,7
    2e50:	14400e16 	blt	r2,r17,2e8c <___vfprintf_internal_r+0x111c>
    2e54:	b2000204 	addi	r8,r22,8
    2e58:	003e3a06 	br	2744 <__reset+0xfbf02744>
    2e5c:	01000074 	movhi	r4,1
    2e60:	21014684 	addi	r4,r4,1306
    2e64:	d9002b15 	stw	r4,172(sp)
    2e68:	d9002b17 	ldw	r4,172(sp)
    2e6c:	1c07883a 	add	r3,r3,r16
    2e70:	44000115 	stw	r16,4(r8)
    2e74:	41000015 	stw	r4,0(r8)
    2e78:	10800044 	addi	r2,r2,1
    2e7c:	d8c02015 	stw	r3,128(sp)
    2e80:	d8801f15 	stw	r2,124(sp)
    2e84:	010001c4 	movi	r4,7
    2e88:	20be2d0e 	bge	r4,r2,2740 <__reset+0xfbf02740>
    2e8c:	d9002c17 	ldw	r4,176(sp)
    2e90:	d9801e04 	addi	r6,sp,120
    2e94:	b80b883a 	mov	r5,r23
    2e98:	00092440 	call	9244 <__sprint_r>
    2e9c:	103cb61e 	bne	r2,zero,2178 <__reset+0xfbf02178>
    2ea0:	d8c02017 	ldw	r3,128(sp)
    2ea4:	da000404 	addi	r8,sp,16
    2ea8:	003e2606 	br	2744 <__reset+0xfbf02744>
    2eac:	d9002c17 	ldw	r4,176(sp)
    2eb0:	d9801e04 	addi	r6,sp,120
    2eb4:	b80b883a 	mov	r5,r23
    2eb8:	00092440 	call	9244 <__sprint_r>
    2ebc:	103e5d26 	beq	r2,zero,2834 <__reset+0xfbf02834>
    2ec0:	003cad06 	br	2178 <__reset+0xfbf02178>
    2ec4:	d9002c17 	ldw	r4,176(sp)
    2ec8:	d9801e04 	addi	r6,sp,120
    2ecc:	b80b883a 	mov	r5,r23
    2ed0:	00092440 	call	9244 <__sprint_r>
    2ed4:	103ca81e 	bne	r2,zero,2178 <__reset+0xfbf02178>
    2ed8:	d8c02017 	ldw	r3,128(sp)
    2edc:	da000404 	addi	r8,sp,16
    2ee0:	003e0b06 	br	2710 <__reset+0xfbf02710>
    2ee4:	d9002c17 	ldw	r4,176(sp)
    2ee8:	d9801e04 	addi	r6,sp,120
    2eec:	b80b883a 	mov	r5,r23
    2ef0:	00092440 	call	9244 <__sprint_r>
    2ef4:	103ca01e 	bne	r2,zero,2178 <__reset+0xfbf02178>
    2ef8:	d8c02017 	ldw	r3,128(sp)
    2efc:	da000404 	addi	r8,sp,16
    2f00:	003dbd06 	br	25f8 <__reset+0xfbf025f8>
    2f04:	d9002c17 	ldw	r4,176(sp)
    2f08:	d9801e04 	addi	r6,sp,120
    2f0c:	b80b883a 	mov	r5,r23
    2f10:	00092440 	call	9244 <__sprint_r>
    2f14:	103c981e 	bne	r2,zero,2178 <__reset+0xfbf02178>
    2f18:	d8c02017 	ldw	r3,128(sp)
    2f1c:	da000404 	addi	r8,sp,16
    2f20:	003dc306 	br	2630 <__reset+0xfbf02630>
    2f24:	d8802917 	ldw	r2,164(sp)
    2f28:	d8002785 	stb	zero,158(sp)
    2f2c:	103f0616 	blt	r2,zero,2b48 <__reset+0xfbf02b48>
    2f30:	00ffdfc4 	movi	r3,-129
    2f34:	9d84b03a 	or	r2,r19,r22
    2f38:	90e4703a 	and	r18,r18,r3
    2f3c:	103c6b26 	beq	r2,zero,20ec <__reset+0xfbf020ec>
    2f40:	0039883a 	mov	fp,zero
    2f44:	003e7406 	br	2918 <__reset+0xfbf02918>
    2f48:	9080040c 	andi	r2,r18,16
    2f4c:	1001b326 	beq	r2,zero,361c <___vfprintf_internal_r+0x18ac>
    2f50:	d9002d17 	ldw	r4,180(sp)
    2f54:	d9402917 	ldw	r5,164(sp)
    2f58:	d8002785 	stb	zero,158(sp)
    2f5c:	20800104 	addi	r2,r4,4
    2f60:	24c00017 	ldw	r19,0(r4)
    2f64:	002d883a 	mov	r22,zero
    2f68:	2801b516 	blt	r5,zero,3640 <___vfprintf_internal_r+0x18d0>
    2f6c:	00ffdfc4 	movi	r3,-129
    2f70:	d8802d15 	stw	r2,180(sp)
    2f74:	90e4703a 	and	r18,r18,r3
    2f78:	983d2726 	beq	r19,zero,2418 <__reset+0xfbf02418>
    2f7c:	0039883a 	mov	fp,zero
    2f80:	003d2a06 	br	242c <__reset+0xfbf0242c>
    2f84:	dc402617 	ldw	r17,152(sp)
    2f88:	0441d30e 	bge	zero,r17,36d8 <___vfprintf_internal_r+0x1968>
    2f8c:	dc403217 	ldw	r17,200(sp)
    2f90:	d8803317 	ldw	r2,204(sp)
    2f94:	1440010e 	bge	r2,r17,2f9c <___vfprintf_internal_r+0x122c>
    2f98:	1023883a 	mov	r17,r2
    2f9c:	04400a0e 	bge	zero,r17,2fc8 <___vfprintf_internal_r+0x1258>
    2fa0:	d8801f17 	ldw	r2,124(sp)
    2fa4:	1c47883a 	add	r3,r3,r17
    2fa8:	44000015 	stw	r16,0(r8)
    2fac:	10800044 	addi	r2,r2,1
    2fb0:	44400115 	stw	r17,4(r8)
    2fb4:	d8c02015 	stw	r3,128(sp)
    2fb8:	d8801f15 	stw	r2,124(sp)
    2fbc:	010001c4 	movi	r4,7
    2fc0:	20826516 	blt	r4,r2,3958 <___vfprintf_internal_r+0x1be8>
    2fc4:	42000204 	addi	r8,r8,8
    2fc8:	88026116 	blt	r17,zero,3950 <___vfprintf_internal_r+0x1be0>
    2fcc:	d9003217 	ldw	r4,200(sp)
    2fd0:	2463c83a 	sub	r17,r4,r17
    2fd4:	04407b0e 	bge	zero,r17,31c4 <___vfprintf_internal_r+0x1454>
    2fd8:	05800404 	movi	r22,16
    2fdc:	d8801f17 	ldw	r2,124(sp)
    2fe0:	b4419d0e 	bge	r22,r17,3658 <___vfprintf_internal_r+0x18e8>
    2fe4:	01000074 	movhi	r4,1
    2fe8:	21014684 	addi	r4,r4,1306
    2fec:	d9002b15 	stw	r4,172(sp)
    2ff0:	070001c4 	movi	fp,7
    2ff4:	dcc02c17 	ldw	r19,176(sp)
    2ff8:	00000306 	br	3008 <___vfprintf_internal_r+0x1298>
    2ffc:	42000204 	addi	r8,r8,8
    3000:	8c7ffc04 	addi	r17,r17,-16
    3004:	b441970e 	bge	r22,r17,3664 <___vfprintf_internal_r+0x18f4>
    3008:	18c00404 	addi	r3,r3,16
    300c:	10800044 	addi	r2,r2,1
    3010:	45000015 	stw	r20,0(r8)
    3014:	45800115 	stw	r22,4(r8)
    3018:	d8c02015 	stw	r3,128(sp)
    301c:	d8801f15 	stw	r2,124(sp)
    3020:	e0bff60e 	bge	fp,r2,2ffc <__reset+0xfbf02ffc>
    3024:	d9801e04 	addi	r6,sp,120
    3028:	b80b883a 	mov	r5,r23
    302c:	9809883a 	mov	r4,r19
    3030:	00092440 	call	9244 <__sprint_r>
    3034:	103c501e 	bne	r2,zero,2178 <__reset+0xfbf02178>
    3038:	d8c02017 	ldw	r3,128(sp)
    303c:	d8801f17 	ldw	r2,124(sp)
    3040:	da000404 	addi	r8,sp,16
    3044:	003fee06 	br	3000 <__reset+0xfbf03000>
    3048:	d9002c17 	ldw	r4,176(sp)
    304c:	d9801e04 	addi	r6,sp,120
    3050:	b80b883a 	mov	r5,r23
    3054:	00092440 	call	9244 <__sprint_r>
    3058:	103c471e 	bne	r2,zero,2178 <__reset+0xfbf02178>
    305c:	d8c02017 	ldw	r3,128(sp)
    3060:	df002787 	ldb	fp,158(sp)
    3064:	da000404 	addi	r8,sp,16
    3068:	003d5606 	br	25c4 <__reset+0xfbf025c4>
    306c:	9080040c 	andi	r2,r18,16
    3070:	10016126 	beq	r2,zero,35f8 <___vfprintf_internal_r+0x1888>
    3074:	d8802d17 	ldw	r2,180(sp)
    3078:	14c00017 	ldw	r19,0(r2)
    307c:	10800104 	addi	r2,r2,4
    3080:	d8802d15 	stw	r2,180(sp)
    3084:	982dd7fa 	srai	r22,r19,31
    3088:	b005883a 	mov	r2,r22
    308c:	003c8206 	br	2298 <__reset+0xfbf02298>
    3090:	9080040c 	andi	r2,r18,16
    3094:	10003526 	beq	r2,zero,316c <___vfprintf_internal_r+0x13fc>
    3098:	d9402d17 	ldw	r5,180(sp)
    309c:	d8c02917 	ldw	r3,164(sp)
    30a0:	d8002785 	stb	zero,158(sp)
    30a4:	28800104 	addi	r2,r5,4
    30a8:	2cc00017 	ldw	r19,0(r5)
    30ac:	002d883a 	mov	r22,zero
    30b0:	18003716 	blt	r3,zero,3190 <___vfprintf_internal_r+0x1420>
    30b4:	00ffdfc4 	movi	r3,-129
    30b8:	d8802d15 	stw	r2,180(sp)
    30bc:	90e4703a 	and	r18,r18,r3
    30c0:	0039883a 	mov	fp,zero
    30c4:	983df326 	beq	r19,zero,2894 <__reset+0xfbf02894>
    30c8:	00800244 	movi	r2,9
    30cc:	14fc7b36 	bltu	r2,r19,22bc <__reset+0xfbf022bc>
    30d0:	d8c02817 	ldw	r3,160(sp)
    30d4:	dc001dc4 	addi	r16,sp,119
    30d8:	9cc00c04 	addi	r19,r19,48
    30dc:	1c07c83a 	sub	r3,r3,r16
    30e0:	dcc01dc5 	stb	r19,119(sp)
    30e4:	d8c02e15 	stw	r3,184(sp)
    30e8:	003ce806 	br	248c <__reset+0xfbf0248c>
    30ec:	d8803317 	ldw	r2,204(sp)
    30f0:	143fffc4 	addi	r16,r2,-1
    30f4:	043f4d0e 	bge	zero,r16,2e2c <__reset+0xfbf02e2c>
    30f8:	07000404 	movi	fp,16
    30fc:	e400810e 	bge	fp,r16,3304 <___vfprintf_internal_r+0x1594>
    3100:	01400074 	movhi	r5,1
    3104:	29414684 	addi	r5,r5,1306
    3108:	d9402b15 	stw	r5,172(sp)
    310c:	01c001c4 	movi	r7,7
    3110:	dcc02c17 	ldw	r19,176(sp)
    3114:	00000306 	br	3124 <___vfprintf_internal_r+0x13b4>
    3118:	b5800204 	addi	r22,r22,8
    311c:	843ffc04 	addi	r16,r16,-16
    3120:	e4007b0e 	bge	fp,r16,3310 <___vfprintf_internal_r+0x15a0>
    3124:	18c00404 	addi	r3,r3,16
    3128:	8c400044 	addi	r17,r17,1
    312c:	b5000015 	stw	r20,0(r22)
    3130:	b7000115 	stw	fp,4(r22)
    3134:	d8c02015 	stw	r3,128(sp)
    3138:	dc401f15 	stw	r17,124(sp)
    313c:	3c7ff60e 	bge	r7,r17,3118 <__reset+0xfbf03118>
    3140:	d9801e04 	addi	r6,sp,120
    3144:	b80b883a 	mov	r5,r23
    3148:	9809883a 	mov	r4,r19
    314c:	d9c03c15 	stw	r7,240(sp)
    3150:	00092440 	call	9244 <__sprint_r>
    3154:	d9c03c17 	ldw	r7,240(sp)
    3158:	103c071e 	bne	r2,zero,2178 <__reset+0xfbf02178>
    315c:	d8c02017 	ldw	r3,128(sp)
    3160:	dc401f17 	ldw	r17,124(sp)
    3164:	dd800404 	addi	r22,sp,16
    3168:	003fec06 	br	311c <__reset+0xfbf0311c>
    316c:	9080100c 	andi	r2,r18,64
    3170:	d8002785 	stb	zero,158(sp)
    3174:	10010e26 	beq	r2,zero,35b0 <___vfprintf_internal_r+0x1840>
    3178:	d9002d17 	ldw	r4,180(sp)
    317c:	d9402917 	ldw	r5,164(sp)
    3180:	002d883a 	mov	r22,zero
    3184:	20800104 	addi	r2,r4,4
    3188:	24c0000b 	ldhu	r19,0(r4)
    318c:	283fc90e 	bge	r5,zero,30b4 <__reset+0xfbf030b4>
    3190:	d8802d15 	stw	r2,180(sp)
    3194:	0039883a 	mov	fp,zero
    3198:	9d84b03a 	or	r2,r19,r22
    319c:	103c461e 	bne	r2,zero,22b8 <__reset+0xfbf022b8>
    31a0:	00800044 	movi	r2,1
    31a4:	003e6c06 	br	2b58 <__reset+0xfbf02b58>
    31a8:	d9002c17 	ldw	r4,176(sp)
    31ac:	d9801e04 	addi	r6,sp,120
    31b0:	b80b883a 	mov	r5,r23
    31b4:	00092440 	call	9244 <__sprint_r>
    31b8:	103bef1e 	bne	r2,zero,2178 <__reset+0xfbf02178>
    31bc:	d8c02017 	ldw	r3,128(sp)
    31c0:	da000404 	addi	r8,sp,16
    31c4:	d9003217 	ldw	r4,200(sp)
    31c8:	d8802617 	ldw	r2,152(sp)
    31cc:	d9403317 	ldw	r5,204(sp)
    31d0:	8123883a 	add	r17,r16,r4
    31d4:	11400216 	blt	r2,r5,31e0 <___vfprintf_internal_r+0x1470>
    31d8:	9100004c 	andi	r4,r18,1
    31dc:	20000d26 	beq	r4,zero,3214 <___vfprintf_internal_r+0x14a4>
    31e0:	d9003717 	ldw	r4,220(sp)
    31e4:	d9403417 	ldw	r5,208(sp)
    31e8:	1907883a 	add	r3,r3,r4
    31ec:	d9001f17 	ldw	r4,124(sp)
    31f0:	41400015 	stw	r5,0(r8)
    31f4:	d9403717 	ldw	r5,220(sp)
    31f8:	21000044 	addi	r4,r4,1
    31fc:	d8c02015 	stw	r3,128(sp)
    3200:	41400115 	stw	r5,4(r8)
    3204:	d9001f15 	stw	r4,124(sp)
    3208:	014001c4 	movi	r5,7
    320c:	2901e816 	blt	r5,r4,39b0 <___vfprintf_internal_r+0x1c40>
    3210:	42000204 	addi	r8,r8,8
    3214:	d9003317 	ldw	r4,204(sp)
    3218:	8121883a 	add	r16,r16,r4
    321c:	2085c83a 	sub	r2,r4,r2
    3220:	8461c83a 	sub	r16,r16,r17
    3224:	1400010e 	bge	r2,r16,322c <___vfprintf_internal_r+0x14bc>
    3228:	1021883a 	mov	r16,r2
    322c:	04000a0e 	bge	zero,r16,3258 <___vfprintf_internal_r+0x14e8>
    3230:	d9001f17 	ldw	r4,124(sp)
    3234:	1c07883a 	add	r3,r3,r16
    3238:	44400015 	stw	r17,0(r8)
    323c:	21000044 	addi	r4,r4,1
    3240:	44000115 	stw	r16,4(r8)
    3244:	d8c02015 	stw	r3,128(sp)
    3248:	d9001f15 	stw	r4,124(sp)
    324c:	014001c4 	movi	r5,7
    3250:	2901fb16 	blt	r5,r4,3a40 <___vfprintf_internal_r+0x1cd0>
    3254:	42000204 	addi	r8,r8,8
    3258:	8001f716 	blt	r16,zero,3a38 <___vfprintf_internal_r+0x1cc8>
    325c:	1421c83a 	sub	r16,r2,r16
    3260:	043d380e 	bge	zero,r16,2744 <__reset+0xfbf02744>
    3264:	04400404 	movi	r17,16
    3268:	d8801f17 	ldw	r2,124(sp)
    326c:	8c3efb0e 	bge	r17,r16,2e5c <__reset+0xfbf02e5c>
    3270:	01400074 	movhi	r5,1
    3274:	29414684 	addi	r5,r5,1306
    3278:	d9402b15 	stw	r5,172(sp)
    327c:	058001c4 	movi	r22,7
    3280:	dcc02c17 	ldw	r19,176(sp)
    3284:	00000306 	br	3294 <___vfprintf_internal_r+0x1524>
    3288:	42000204 	addi	r8,r8,8
    328c:	843ffc04 	addi	r16,r16,-16
    3290:	8c3ef50e 	bge	r17,r16,2e68 <__reset+0xfbf02e68>
    3294:	18c00404 	addi	r3,r3,16
    3298:	10800044 	addi	r2,r2,1
    329c:	45000015 	stw	r20,0(r8)
    32a0:	44400115 	stw	r17,4(r8)
    32a4:	d8c02015 	stw	r3,128(sp)
    32a8:	d8801f15 	stw	r2,124(sp)
    32ac:	b0bff60e 	bge	r22,r2,3288 <__reset+0xfbf03288>
    32b0:	d9801e04 	addi	r6,sp,120
    32b4:	b80b883a 	mov	r5,r23
    32b8:	9809883a 	mov	r4,r19
    32bc:	00092440 	call	9244 <__sprint_r>
    32c0:	103bad1e 	bne	r2,zero,2178 <__reset+0xfbf02178>
    32c4:	d8c02017 	ldw	r3,128(sp)
    32c8:	d8801f17 	ldw	r2,124(sp)
    32cc:	da000404 	addi	r8,sp,16
    32d0:	003fee06 	br	328c <__reset+0xfbf0328c>
    32d4:	9088703a 	and	r4,r18,r2
    32d8:	203eab1e 	bne	r4,zero,2d88 <__reset+0xfbf02d88>
    32dc:	dc401f17 	ldw	r17,124(sp)
    32e0:	40800115 	stw	r2,4(r8)
    32e4:	44000015 	stw	r16,0(r8)
    32e8:	8c400044 	addi	r17,r17,1
    32ec:	d8c02015 	stw	r3,128(sp)
    32f0:	dc401f15 	stw	r17,124(sp)
    32f4:	008001c4 	movi	r2,7
    32f8:	14400e16 	blt	r2,r17,3334 <___vfprintf_internal_r+0x15c4>
    32fc:	45800204 	addi	r22,r8,8
    3300:	003eca06 	br	2e2c <__reset+0xfbf02e2c>
    3304:	01000074 	movhi	r4,1
    3308:	21014684 	addi	r4,r4,1306
    330c:	d9002b15 	stw	r4,172(sp)
    3310:	d8802b17 	ldw	r2,172(sp)
    3314:	1c07883a 	add	r3,r3,r16
    3318:	8c400044 	addi	r17,r17,1
    331c:	b0800015 	stw	r2,0(r22)
    3320:	b4000115 	stw	r16,4(r22)
    3324:	d8c02015 	stw	r3,128(sp)
    3328:	dc401f15 	stw	r17,124(sp)
    332c:	008001c4 	movi	r2,7
    3330:	147ebd0e 	bge	r2,r17,2e28 <__reset+0xfbf02e28>
    3334:	d9002c17 	ldw	r4,176(sp)
    3338:	d9801e04 	addi	r6,sp,120
    333c:	b80b883a 	mov	r5,r23
    3340:	00092440 	call	9244 <__sprint_r>
    3344:	103b8c1e 	bne	r2,zero,2178 <__reset+0xfbf02178>
    3348:	d8c02017 	ldw	r3,128(sp)
    334c:	dc401f17 	ldw	r17,124(sp)
    3350:	dd800404 	addi	r22,sp,16
    3354:	003eb506 	br	2e2c <__reset+0xfbf02e2c>
    3358:	d9002c17 	ldw	r4,176(sp)
    335c:	d9801e04 	addi	r6,sp,120
    3360:	b80b883a 	mov	r5,r23
    3364:	00092440 	call	9244 <__sprint_r>
    3368:	103b831e 	bne	r2,zero,2178 <__reset+0xfbf02178>
    336c:	d8c02017 	ldw	r3,128(sp)
    3370:	dc401f17 	ldw	r17,124(sp)
    3374:	da000404 	addi	r8,sp,16
    3378:	003e8d06 	br	2db0 <__reset+0xfbf02db0>
    337c:	d9002c17 	ldw	r4,176(sp)
    3380:	d9801e04 	addi	r6,sp,120
    3384:	b80b883a 	mov	r5,r23
    3388:	00092440 	call	9244 <__sprint_r>
    338c:	103b7a1e 	bne	r2,zero,2178 <__reset+0xfbf02178>
    3390:	d8c02017 	ldw	r3,128(sp)
    3394:	dc401f17 	ldw	r17,124(sp)
    3398:	dd800404 	addi	r22,sp,16
    339c:	003e8f06 	br	2ddc <__reset+0xfbf02ddc>
    33a0:	0027883a 	mov	r19,zero
    33a4:	003f4a06 	br	30d0 <__reset+0xfbf030d0>
    33a8:	d9002c17 	ldw	r4,176(sp)
    33ac:	d9801e04 	addi	r6,sp,120
    33b0:	b80b883a 	mov	r5,r23
    33b4:	00092440 	call	9244 <__sprint_r>
    33b8:	103b6f1e 	bne	r2,zero,2178 <__reset+0xfbf02178>
    33bc:	d8c02017 	ldw	r3,128(sp)
    33c0:	da000404 	addi	r8,sp,16
    33c4:	003c9d06 	br	263c <__reset+0xfbf0263c>
    33c8:	04e7c83a 	sub	r19,zero,r19
    33cc:	9804c03a 	cmpne	r2,r19,zero
    33d0:	05adc83a 	sub	r22,zero,r22
    33d4:	b0adc83a 	sub	r22,r22,r2
    33d8:	d8802917 	ldw	r2,164(sp)
    33dc:	07000b44 	movi	fp,45
    33e0:	df002785 	stb	fp,158(sp)
    33e4:	10017b16 	blt	r2,zero,39d4 <___vfprintf_internal_r+0x1c64>
    33e8:	00bfdfc4 	movi	r2,-129
    33ec:	90a4703a 	and	r18,r18,r2
    33f0:	003bb106 	br	22b8 <__reset+0xfbf022b8>
    33f4:	d9003617 	ldw	r4,216(sp)
    33f8:	d9403817 	ldw	r5,224(sp)
    33fc:	da003d15 	stw	r8,244(sp)
    3400:	0008e680 	call	8e68 <__fpclassifyd>
    3404:	da003d17 	ldw	r8,244(sp)
    3408:	1000f026 	beq	r2,zero,37cc <___vfprintf_internal_r+0x1a5c>
    340c:	d9002917 	ldw	r4,164(sp)
    3410:	05bff7c4 	movi	r22,-33
    3414:	00bfffc4 	movi	r2,-1
    3418:	8dac703a 	and	r22,r17,r22
    341c:	20820026 	beq	r4,r2,3c20 <___vfprintf_internal_r+0x1eb0>
    3420:	008011c4 	movi	r2,71
    3424:	b081f726 	beq	r22,r2,3c04 <___vfprintf_internal_r+0x1e94>
    3428:	d9003817 	ldw	r4,224(sp)
    342c:	90c04014 	ori	r3,r18,256
    3430:	d8c02b15 	stw	r3,172(sp)
    3434:	20021516 	blt	r4,zero,3c8c <___vfprintf_internal_r+0x1f1c>
    3438:	dcc03817 	ldw	r19,224(sp)
    343c:	d8002a05 	stb	zero,168(sp)
    3440:	00801984 	movi	r2,102
    3444:	8881f926 	beq	r17,r2,3c2c <___vfprintf_internal_r+0x1ebc>
    3448:	00801184 	movi	r2,70
    344c:	88821c26 	beq	r17,r2,3cc0 <___vfprintf_internal_r+0x1f50>
    3450:	00801144 	movi	r2,69
    3454:	b081ef26 	beq	r22,r2,3c14 <___vfprintf_internal_r+0x1ea4>
    3458:	d8c02917 	ldw	r3,164(sp)
    345c:	d8802104 	addi	r2,sp,132
    3460:	d8800315 	stw	r2,12(sp)
    3464:	d9403617 	ldw	r5,216(sp)
    3468:	d8802504 	addi	r2,sp,148
    346c:	d9002c17 	ldw	r4,176(sp)
    3470:	d8800215 	stw	r2,8(sp)
    3474:	d8802604 	addi	r2,sp,152
    3478:	d8c00015 	stw	r3,0(sp)
    347c:	d8800115 	stw	r2,4(sp)
    3480:	01c00084 	movi	r7,2
    3484:	980d883a 	mov	r6,r19
    3488:	d8c03c15 	stw	r3,240(sp)
    348c:	da003d15 	stw	r8,244(sp)
    3490:	00043940 	call	4394 <_dtoa_r>
    3494:	1021883a 	mov	r16,r2
    3498:	008019c4 	movi	r2,103
    349c:	d8c03c17 	ldw	r3,240(sp)
    34a0:	da003d17 	ldw	r8,244(sp)
    34a4:	88817126 	beq	r17,r2,3a6c <___vfprintf_internal_r+0x1cfc>
    34a8:	008011c4 	movi	r2,71
    34ac:	88829226 	beq	r17,r2,3ef8 <___vfprintf_internal_r+0x2188>
    34b0:	80f9883a 	add	fp,r16,r3
    34b4:	d9003617 	ldw	r4,216(sp)
    34b8:	000d883a 	mov	r6,zero
    34bc:	000f883a 	mov	r7,zero
    34c0:	980b883a 	mov	r5,r19
    34c4:	da003d15 	stw	r8,244(sp)
    34c8:	000cebc0 	call	cebc <__eqdf2>
    34cc:	da003d17 	ldw	r8,244(sp)
    34d0:	10018d26 	beq	r2,zero,3b08 <___vfprintf_internal_r+0x1d98>
    34d4:	d8802117 	ldw	r2,132(sp)
    34d8:	1700062e 	bgeu	r2,fp,34f4 <___vfprintf_internal_r+0x1784>
    34dc:	01000c04 	movi	r4,48
    34e0:	10c00044 	addi	r3,r2,1
    34e4:	d8c02115 	stw	r3,132(sp)
    34e8:	11000005 	stb	r4,0(r2)
    34ec:	d8802117 	ldw	r2,132(sp)
    34f0:	173ffb36 	bltu	r2,fp,34e0 <__reset+0xfbf034e0>
    34f4:	1405c83a 	sub	r2,r2,r16
    34f8:	d8803315 	stw	r2,204(sp)
    34fc:	008011c4 	movi	r2,71
    3500:	b0817626 	beq	r22,r2,3adc <___vfprintf_internal_r+0x1d6c>
    3504:	00801944 	movi	r2,101
    3508:	1442810e 	bge	r2,r17,3f10 <___vfprintf_internal_r+0x21a0>
    350c:	d8c02617 	ldw	r3,152(sp)
    3510:	00801984 	movi	r2,102
    3514:	d8c03215 	stw	r3,200(sp)
    3518:	8881fe26 	beq	r17,r2,3d14 <___vfprintf_internal_r+0x1fa4>
    351c:	d8c03217 	ldw	r3,200(sp)
    3520:	d9003317 	ldw	r4,204(sp)
    3524:	1901dd16 	blt	r3,r4,3c9c <___vfprintf_internal_r+0x1f2c>
    3528:	9480004c 	andi	r18,r18,1
    352c:	90022b1e 	bne	r18,zero,3ddc <___vfprintf_internal_r+0x206c>
    3530:	1805883a 	mov	r2,r3
    3534:	18028016 	blt	r3,zero,3f38 <___vfprintf_internal_r+0x21c8>
    3538:	d8c03217 	ldw	r3,200(sp)
    353c:	044019c4 	movi	r17,103
    3540:	d8c02e15 	stw	r3,184(sp)
    3544:	df002a07 	ldb	fp,168(sp)
    3548:	e001531e 	bne	fp,zero,3a98 <___vfprintf_internal_r+0x1d28>
    354c:	df002783 	ldbu	fp,158(sp)
    3550:	d8802a15 	stw	r2,168(sp)
    3554:	dc802b17 	ldw	r18,172(sp)
    3558:	d8002915 	stw	zero,164(sp)
    355c:	003bd106 	br	24a4 <__reset+0xfbf024a4>
    3560:	d8802d17 	ldw	r2,180(sp)
    3564:	d8c02d17 	ldw	r3,180(sp)
    3568:	d9002d17 	ldw	r4,180(sp)
    356c:	10800017 	ldw	r2,0(r2)
    3570:	18c00117 	ldw	r3,4(r3)
    3574:	21000204 	addi	r4,r4,8
    3578:	d8803615 	stw	r2,216(sp)
    357c:	d8c03815 	stw	r3,224(sp)
    3580:	d9002d15 	stw	r4,180(sp)
    3584:	003b7506 	br	235c <__reset+0xfbf0235c>
    3588:	ac400007 	ldb	r17,0(r21)
    358c:	003a5906 	br	1ef4 <__reset+0xfbf01ef4>
    3590:	9080100c 	andi	r2,r18,64
    3594:	1000a826 	beq	r2,zero,3838 <___vfprintf_internal_r+0x1ac8>
    3598:	d9002d17 	ldw	r4,180(sp)
    359c:	002d883a 	mov	r22,zero
    35a0:	24c0000b 	ldhu	r19,0(r4)
    35a4:	21000104 	addi	r4,r4,4
    35a8:	d9002d15 	stw	r4,180(sp)
    35ac:	003ccb06 	br	28dc <__reset+0xfbf028dc>
    35b0:	d8c02d17 	ldw	r3,180(sp)
    35b4:	d9002917 	ldw	r4,164(sp)
    35b8:	002d883a 	mov	r22,zero
    35bc:	18800104 	addi	r2,r3,4
    35c0:	1cc00017 	ldw	r19,0(r3)
    35c4:	203ebb0e 	bge	r4,zero,30b4 <__reset+0xfbf030b4>
    35c8:	003ef106 	br	3190 <__reset+0xfbf03190>
    35cc:	9080040c 	andi	r2,r18,16
    35d0:	1000921e 	bne	r2,zero,381c <___vfprintf_internal_r+0x1aac>
    35d4:	9480100c 	andi	r18,r18,64
    35d8:	90013926 	beq	r18,zero,3ac0 <___vfprintf_internal_r+0x1d50>
    35dc:	d9002d17 	ldw	r4,180(sp)
    35e0:	d9402f17 	ldw	r5,188(sp)
    35e4:	20800017 	ldw	r2,0(r4)
    35e8:	21000104 	addi	r4,r4,4
    35ec:	d9002d15 	stw	r4,180(sp)
    35f0:	1140000d 	sth	r5,0(r2)
    35f4:	003a1606 	br	1e50 <__reset+0xfbf01e50>
    35f8:	9080100c 	andi	r2,r18,64
    35fc:	10008026 	beq	r2,zero,3800 <___vfprintf_internal_r+0x1a90>
    3600:	d8c02d17 	ldw	r3,180(sp)
    3604:	1cc0000f 	ldh	r19,0(r3)
    3608:	18c00104 	addi	r3,r3,4
    360c:	d8c02d15 	stw	r3,180(sp)
    3610:	982dd7fa 	srai	r22,r19,31
    3614:	b005883a 	mov	r2,r22
    3618:	003b1f06 	br	2298 <__reset+0xfbf02298>
    361c:	9080100c 	andi	r2,r18,64
    3620:	d8002785 	stb	zero,158(sp)
    3624:	10008a1e 	bne	r2,zero,3850 <___vfprintf_internal_r+0x1ae0>
    3628:	d9402d17 	ldw	r5,180(sp)
    362c:	d8c02917 	ldw	r3,164(sp)
    3630:	002d883a 	mov	r22,zero
    3634:	28800104 	addi	r2,r5,4
    3638:	2cc00017 	ldw	r19,0(r5)
    363c:	183e4b0e 	bge	r3,zero,2f6c <__reset+0xfbf02f6c>
    3640:	9d86b03a 	or	r3,r19,r22
    3644:	d8802d15 	stw	r2,180(sp)
    3648:	183e4c1e 	bne	r3,zero,2f7c <__reset+0xfbf02f7c>
    364c:	0039883a 	mov	fp,zero
    3650:	0005883a 	mov	r2,zero
    3654:	003d4006 	br	2b58 <__reset+0xfbf02b58>
    3658:	01400074 	movhi	r5,1
    365c:	29414684 	addi	r5,r5,1306
    3660:	d9402b15 	stw	r5,172(sp)
    3664:	d9402b17 	ldw	r5,172(sp)
    3668:	1c47883a 	add	r3,r3,r17
    366c:	10800044 	addi	r2,r2,1
    3670:	41400015 	stw	r5,0(r8)
    3674:	44400115 	stw	r17,4(r8)
    3678:	d8c02015 	stw	r3,128(sp)
    367c:	d8801f15 	stw	r2,124(sp)
    3680:	010001c4 	movi	r4,7
    3684:	20bec816 	blt	r4,r2,31a8 <__reset+0xfbf031a8>
    3688:	42000204 	addi	r8,r8,8
    368c:	003ecd06 	br	31c4 <__reset+0xfbf031c4>
    3690:	d9002917 	ldw	r4,164(sp)
    3694:	d8002785 	stb	zero,158(sp)
    3698:	203d2d16 	blt	r4,zero,2b50 <__reset+0xfbf02b50>
    369c:	00bfdfc4 	movi	r2,-129
    36a0:	90a4703a 	and	r18,r18,r2
    36a4:	003a9106 	br	20ec <__reset+0xfbf020ec>
    36a8:	01000074 	movhi	r4,1
    36ac:	21014684 	addi	r4,r4,1306
    36b0:	d9002b15 	stw	r4,172(sp)
    36b4:	003c0c06 	br	26e8 <__reset+0xfbf026e8>
    36b8:	d9002c17 	ldw	r4,176(sp)
    36bc:	d9801e04 	addi	r6,sp,120
    36c0:	b80b883a 	mov	r5,r23
    36c4:	00092440 	call	9244 <__sprint_r>
    36c8:	103aab1e 	bne	r2,zero,2178 <__reset+0xfbf02178>
    36cc:	d8c02017 	ldw	r3,128(sp)
    36d0:	da000404 	addi	r8,sp,16
    36d4:	003d4106 	br	2bdc <__reset+0xfbf02bdc>
    36d8:	d8801f17 	ldw	r2,124(sp)
    36dc:	01400074 	movhi	r5,1
    36e0:	01000044 	movi	r4,1
    36e4:	18c00044 	addi	r3,r3,1
    36e8:	10800044 	addi	r2,r2,1
    36ec:	29414604 	addi	r5,r5,1304
    36f0:	41000115 	stw	r4,4(r8)
    36f4:	41400015 	stw	r5,0(r8)
    36f8:	d8c02015 	stw	r3,128(sp)
    36fc:	d8801f15 	stw	r2,124(sp)
    3700:	010001c4 	movi	r4,7
    3704:	20805c16 	blt	r4,r2,3878 <___vfprintf_internal_r+0x1b08>
    3708:	42000204 	addi	r8,r8,8
    370c:	8800041e 	bne	r17,zero,3720 <___vfprintf_internal_r+0x19b0>
    3710:	d8803317 	ldw	r2,204(sp)
    3714:	1000021e 	bne	r2,zero,3720 <___vfprintf_internal_r+0x19b0>
    3718:	9080004c 	andi	r2,r18,1
    371c:	103c0926 	beq	r2,zero,2744 <__reset+0xfbf02744>
    3720:	d9003717 	ldw	r4,220(sp)
    3724:	d8801f17 	ldw	r2,124(sp)
    3728:	d9403417 	ldw	r5,208(sp)
    372c:	20c7883a 	add	r3,r4,r3
    3730:	10800044 	addi	r2,r2,1
    3734:	41000115 	stw	r4,4(r8)
    3738:	41400015 	stw	r5,0(r8)
    373c:	d8c02015 	stw	r3,128(sp)
    3740:	d8801f15 	stw	r2,124(sp)
    3744:	010001c4 	movi	r4,7
    3748:	20812116 	blt	r4,r2,3bd0 <___vfprintf_internal_r+0x1e60>
    374c:	42000204 	addi	r8,r8,8
    3750:	0463c83a 	sub	r17,zero,r17
    3754:	0440730e 	bge	zero,r17,3924 <___vfprintf_internal_r+0x1bb4>
    3758:	05800404 	movi	r22,16
    375c:	b440860e 	bge	r22,r17,3978 <___vfprintf_internal_r+0x1c08>
    3760:	01400074 	movhi	r5,1
    3764:	29414684 	addi	r5,r5,1306
    3768:	d9402b15 	stw	r5,172(sp)
    376c:	070001c4 	movi	fp,7
    3770:	dcc02c17 	ldw	r19,176(sp)
    3774:	00000306 	br	3784 <___vfprintf_internal_r+0x1a14>
    3778:	42000204 	addi	r8,r8,8
    377c:	8c7ffc04 	addi	r17,r17,-16
    3780:	b440800e 	bge	r22,r17,3984 <___vfprintf_internal_r+0x1c14>
    3784:	18c00404 	addi	r3,r3,16
    3788:	10800044 	addi	r2,r2,1
    378c:	45000015 	stw	r20,0(r8)
    3790:	45800115 	stw	r22,4(r8)
    3794:	d8c02015 	stw	r3,128(sp)
    3798:	d8801f15 	stw	r2,124(sp)
    379c:	e0bff60e 	bge	fp,r2,3778 <__reset+0xfbf03778>
    37a0:	d9801e04 	addi	r6,sp,120
    37a4:	b80b883a 	mov	r5,r23
    37a8:	9809883a 	mov	r4,r19
    37ac:	00092440 	call	9244 <__sprint_r>
    37b0:	103a711e 	bne	r2,zero,2178 <__reset+0xfbf02178>
    37b4:	d8c02017 	ldw	r3,128(sp)
    37b8:	d8801f17 	ldw	r2,124(sp)
    37bc:	da000404 	addi	r8,sp,16
    37c0:	003fee06 	br	377c <__reset+0xfbf0377c>
    37c4:	00bfffc4 	movi	r2,-1
    37c8:	003a6f06 	br	2188 <__reset+0xfbf02188>
    37cc:	008011c4 	movi	r2,71
    37d0:	1440b816 	blt	r2,r17,3ab4 <___vfprintf_internal_r+0x1d44>
    37d4:	04000074 	movhi	r16,1
    37d8:	84013804 	addi	r16,r16,1248
    37dc:	00c000c4 	movi	r3,3
    37e0:	00bfdfc4 	movi	r2,-129
    37e4:	d8c02a15 	stw	r3,168(sp)
    37e8:	90a4703a 	and	r18,r18,r2
    37ec:	df002783 	ldbu	fp,158(sp)
    37f0:	d8c02e15 	stw	r3,184(sp)
    37f4:	d8002915 	stw	zero,164(sp)
    37f8:	d8003215 	stw	zero,200(sp)
    37fc:	003b2906 	br	24a4 <__reset+0xfbf024a4>
    3800:	d9002d17 	ldw	r4,180(sp)
    3804:	24c00017 	ldw	r19,0(r4)
    3808:	21000104 	addi	r4,r4,4
    380c:	d9002d15 	stw	r4,180(sp)
    3810:	982dd7fa 	srai	r22,r19,31
    3814:	b005883a 	mov	r2,r22
    3818:	003a9f06 	br	2298 <__reset+0xfbf02298>
    381c:	d9402d17 	ldw	r5,180(sp)
    3820:	d8c02f17 	ldw	r3,188(sp)
    3824:	28800017 	ldw	r2,0(r5)
    3828:	29400104 	addi	r5,r5,4
    382c:	d9402d15 	stw	r5,180(sp)
    3830:	10c00015 	stw	r3,0(r2)
    3834:	00398606 	br	1e50 <__reset+0xfbf01e50>
    3838:	d9402d17 	ldw	r5,180(sp)
    383c:	002d883a 	mov	r22,zero
    3840:	2cc00017 	ldw	r19,0(r5)
    3844:	29400104 	addi	r5,r5,4
    3848:	d9402d15 	stw	r5,180(sp)
    384c:	003c2306 	br	28dc <__reset+0xfbf028dc>
    3850:	d8c02d17 	ldw	r3,180(sp)
    3854:	d9002917 	ldw	r4,164(sp)
    3858:	002d883a 	mov	r22,zero
    385c:	18800104 	addi	r2,r3,4
    3860:	1cc0000b 	ldhu	r19,0(r3)
    3864:	203dc10e 	bge	r4,zero,2f6c <__reset+0xfbf02f6c>
    3868:	003f7506 	br	3640 <__reset+0xfbf03640>
    386c:	04000074 	movhi	r16,1
    3870:	84013604 	addi	r16,r16,1240
    3874:	003acc06 	br	23a8 <__reset+0xfbf023a8>
    3878:	d9002c17 	ldw	r4,176(sp)
    387c:	d9801e04 	addi	r6,sp,120
    3880:	b80b883a 	mov	r5,r23
    3884:	00092440 	call	9244 <__sprint_r>
    3888:	103a3b1e 	bne	r2,zero,2178 <__reset+0xfbf02178>
    388c:	dc402617 	ldw	r17,152(sp)
    3890:	d8c02017 	ldw	r3,128(sp)
    3894:	da000404 	addi	r8,sp,16
    3898:	003f9c06 	br	370c <__reset+0xfbf0370c>
    389c:	ac400043 	ldbu	r17,1(r21)
    38a0:	94800814 	ori	r18,r18,32
    38a4:	ad400044 	addi	r21,r21,1
    38a8:	8c403fcc 	andi	r17,r17,255
    38ac:	8c40201c 	xori	r17,r17,128
    38b0:	8c7fe004 	addi	r17,r17,-128
    38b4:	00398f06 	br	1ef4 <__reset+0xfbf01ef4>
    38b8:	d8c02d15 	stw	r3,180(sp)
    38bc:	0039883a 	mov	fp,zero
    38c0:	003e3506 	br	3198 <__reset+0xfbf03198>
    38c4:	d9002c17 	ldw	r4,176(sp)
    38c8:	d9801e04 	addi	r6,sp,120
    38cc:	b80b883a 	mov	r5,r23
    38d0:	00092440 	call	9244 <__sprint_r>
    38d4:	103a281e 	bne	r2,zero,2178 <__reset+0xfbf02178>
    38d8:	d8c02017 	ldw	r3,128(sp)
    38dc:	da000404 	addi	r8,sp,16
    38e0:	003cd006 	br	2c24 <__reset+0xfbf02c24>
    38e4:	8009883a 	mov	r4,r16
    38e8:	da003d15 	stw	r8,244(sp)
    38ec:	0001cd80 	call	1cd8 <strlen>
    38f0:	d8802e15 	stw	r2,184(sp)
    38f4:	da003d17 	ldw	r8,244(sp)
    38f8:	103c340e 	bge	r2,zero,29cc <__reset+0xfbf029cc>
    38fc:	0005883a 	mov	r2,zero
    3900:	003c3206 	br	29cc <__reset+0xfbf029cc>
    3904:	d9002c17 	ldw	r4,176(sp)
    3908:	d9801e04 	addi	r6,sp,120
    390c:	b80b883a 	mov	r5,r23
    3910:	00092440 	call	9244 <__sprint_r>
    3914:	103a181e 	bne	r2,zero,2178 <__reset+0xfbf02178>
    3918:	d8c02017 	ldw	r3,128(sp)
    391c:	d8801f17 	ldw	r2,124(sp)
    3920:	da000404 	addi	r8,sp,16
    3924:	d9403317 	ldw	r5,204(sp)
    3928:	10800044 	addi	r2,r2,1
    392c:	44000015 	stw	r16,0(r8)
    3930:	28c7883a 	add	r3,r5,r3
    3934:	003b7d06 	br	272c <__reset+0xfbf0272c>
    3938:	01000074 	movhi	r4,1
    393c:	21014a84 	addi	r4,r4,1322
    3940:	d9003515 	stw	r4,212(sp)
    3944:	003b1406 	br	2598 <__reset+0xfbf02598>
    3948:	013fffc4 	movi	r4,-1
    394c:	003a3506 	br	2224 <__reset+0xfbf02224>
    3950:	0023883a 	mov	r17,zero
    3954:	003d9d06 	br	2fcc <__reset+0xfbf02fcc>
    3958:	d9002c17 	ldw	r4,176(sp)
    395c:	d9801e04 	addi	r6,sp,120
    3960:	b80b883a 	mov	r5,r23
    3964:	00092440 	call	9244 <__sprint_r>
    3968:	103a031e 	bne	r2,zero,2178 <__reset+0xfbf02178>
    396c:	d8c02017 	ldw	r3,128(sp)
    3970:	da000404 	addi	r8,sp,16
    3974:	003d9406 	br	2fc8 <__reset+0xfbf02fc8>
    3978:	01000074 	movhi	r4,1
    397c:	21014684 	addi	r4,r4,1306
    3980:	d9002b15 	stw	r4,172(sp)
    3984:	d9002b17 	ldw	r4,172(sp)
    3988:	1c47883a 	add	r3,r3,r17
    398c:	10800044 	addi	r2,r2,1
    3990:	41000015 	stw	r4,0(r8)
    3994:	44400115 	stw	r17,4(r8)
    3998:	d8c02015 	stw	r3,128(sp)
    399c:	d8801f15 	stw	r2,124(sp)
    39a0:	010001c4 	movi	r4,7
    39a4:	20bfd716 	blt	r4,r2,3904 <__reset+0xfbf03904>
    39a8:	42000204 	addi	r8,r8,8
    39ac:	003fdd06 	br	3924 <__reset+0xfbf03924>
    39b0:	d9002c17 	ldw	r4,176(sp)
    39b4:	d9801e04 	addi	r6,sp,120
    39b8:	b80b883a 	mov	r5,r23
    39bc:	00092440 	call	9244 <__sprint_r>
    39c0:	1039ed1e 	bne	r2,zero,2178 <__reset+0xfbf02178>
    39c4:	d8802617 	ldw	r2,152(sp)
    39c8:	d8c02017 	ldw	r3,128(sp)
    39cc:	da000404 	addi	r8,sp,16
    39d0:	003e1006 	br	3214 <__reset+0xfbf03214>
    39d4:	00800044 	movi	r2,1
    39d8:	10803fcc 	andi	r2,r2,255
    39dc:	00c00044 	movi	r3,1
    39e0:	10fa3526 	beq	r2,r3,22b8 <__reset+0xfbf022b8>
    39e4:	00c00084 	movi	r3,2
    39e8:	10fbcb26 	beq	r2,r3,2918 <__reset+0xfbf02918>
    39ec:	003a8f06 	br	242c <__reset+0xfbf0242c>
    39f0:	01000074 	movhi	r4,1
    39f4:	21014a84 	addi	r4,r4,1322
    39f8:	d9003515 	stw	r4,212(sp)
    39fc:	003b7606 	br	27d8 <__reset+0xfbf027d8>
    3a00:	d8802917 	ldw	r2,164(sp)
    3a04:	00c00184 	movi	r3,6
    3a08:	1880012e 	bgeu	r3,r2,3a10 <___vfprintf_internal_r+0x1ca0>
    3a0c:	1805883a 	mov	r2,r3
    3a10:	d8802e15 	stw	r2,184(sp)
    3a14:	1000ef16 	blt	r2,zero,3dd4 <___vfprintf_internal_r+0x2064>
    3a18:	04000074 	movhi	r16,1
    3a1c:	d8802a15 	stw	r2,168(sp)
    3a20:	dcc02d15 	stw	r19,180(sp)
    3a24:	d8002915 	stw	zero,164(sp)
    3a28:	d8003215 	stw	zero,200(sp)
    3a2c:	84014404 	addi	r16,r16,1296
    3a30:	0039883a 	mov	fp,zero
    3a34:	003aa206 	br	24c0 <__reset+0xfbf024c0>
    3a38:	0021883a 	mov	r16,zero
    3a3c:	003e0706 	br	325c <__reset+0xfbf0325c>
    3a40:	d9002c17 	ldw	r4,176(sp)
    3a44:	d9801e04 	addi	r6,sp,120
    3a48:	b80b883a 	mov	r5,r23
    3a4c:	00092440 	call	9244 <__sprint_r>
    3a50:	1039c91e 	bne	r2,zero,2178 <__reset+0xfbf02178>
    3a54:	d8802617 	ldw	r2,152(sp)
    3a58:	d9403317 	ldw	r5,204(sp)
    3a5c:	d8c02017 	ldw	r3,128(sp)
    3a60:	da000404 	addi	r8,sp,16
    3a64:	2885c83a 	sub	r2,r5,r2
    3a68:	003dfb06 	br	3258 <__reset+0xfbf03258>
    3a6c:	9080004c 	andi	r2,r18,1
    3a70:	103e8f1e 	bne	r2,zero,34b0 <__reset+0xfbf034b0>
    3a74:	d8802117 	ldw	r2,132(sp)
    3a78:	003e9e06 	br	34f4 <__reset+0xfbf034f4>
    3a7c:	1025883a 	mov	r18,r2
    3a80:	0039883a 	mov	fp,zero
    3a84:	00800084 	movi	r2,2
    3a88:	003fd306 	br	39d8 <__reset+0xfbf039d8>
    3a8c:	07000b44 	movi	fp,45
    3a90:	df002785 	stb	fp,158(sp)
    3a94:	003a4006 	br	2398 <__reset+0xfbf02398>
    3a98:	00c00b44 	movi	r3,45
    3a9c:	d8c02785 	stb	r3,158(sp)
    3aa0:	d8802a15 	stw	r2,168(sp)
    3aa4:	dc802b17 	ldw	r18,172(sp)
    3aa8:	d8002915 	stw	zero,164(sp)
    3aac:	07000b44 	movi	fp,45
    3ab0:	003a8006 	br	24b4 <__reset+0xfbf024b4>
    3ab4:	04000074 	movhi	r16,1
    3ab8:	84013904 	addi	r16,r16,1252
    3abc:	003f4706 	br	37dc <__reset+0xfbf037dc>
    3ac0:	d8c02d17 	ldw	r3,180(sp)
    3ac4:	d9002f17 	ldw	r4,188(sp)
    3ac8:	18800017 	ldw	r2,0(r3)
    3acc:	18c00104 	addi	r3,r3,4
    3ad0:	d8c02d15 	stw	r3,180(sp)
    3ad4:	11000015 	stw	r4,0(r2)
    3ad8:	0038dd06 	br	1e50 <__reset+0xfbf01e50>
    3adc:	dd802617 	ldw	r22,152(sp)
    3ae0:	00bfff44 	movi	r2,-3
    3ae4:	b0801c16 	blt	r22,r2,3b58 <___vfprintf_internal_r+0x1de8>
    3ae8:	d9402917 	ldw	r5,164(sp)
    3aec:	2d801a16 	blt	r5,r22,3b58 <___vfprintf_internal_r+0x1de8>
    3af0:	dd803215 	stw	r22,200(sp)
    3af4:	003e8906 	br	351c <__reset+0xfbf0351c>
    3af8:	01000074 	movhi	r4,1
    3afc:	21014684 	addi	r4,r4,1306
    3b00:	d9002b15 	stw	r4,172(sp)
    3b04:	003c9106 	br	2d4c <__reset+0xfbf02d4c>
    3b08:	e005883a 	mov	r2,fp
    3b0c:	003e7906 	br	34f4 <__reset+0xfbf034f4>
    3b10:	d9402917 	ldw	r5,164(sp)
    3b14:	df002783 	ldbu	fp,158(sp)
    3b18:	dcc02d15 	stw	r19,180(sp)
    3b1c:	d9402a15 	stw	r5,168(sp)
    3b20:	d9402e15 	stw	r5,184(sp)
    3b24:	d8002915 	stw	zero,164(sp)
    3b28:	d8003215 	stw	zero,200(sp)
    3b2c:	003a5d06 	br	24a4 <__reset+0xfbf024a4>
    3b30:	9080004c 	andi	r2,r18,1
    3b34:	0039883a 	mov	fp,zero
    3b38:	10000426 	beq	r2,zero,3b4c <___vfprintf_internal_r+0x1ddc>
    3b3c:	00800c04 	movi	r2,48
    3b40:	dc001dc4 	addi	r16,sp,119
    3b44:	d8801dc5 	stb	r2,119(sp)
    3b48:	003b8006 	br	294c <__reset+0xfbf0294c>
    3b4c:	d8002e15 	stw	zero,184(sp)
    3b50:	dc001e04 	addi	r16,sp,120
    3b54:	003a4d06 	br	248c <__reset+0xfbf0248c>
    3b58:	8c7fff84 	addi	r17,r17,-2
    3b5c:	b5bfffc4 	addi	r22,r22,-1
    3b60:	dd802615 	stw	r22,152(sp)
    3b64:	dc4022c5 	stb	r17,139(sp)
    3b68:	b000bf16 	blt	r22,zero,3e68 <___vfprintf_internal_r+0x20f8>
    3b6c:	00800ac4 	movi	r2,43
    3b70:	d8802305 	stb	r2,140(sp)
    3b74:	00800244 	movi	r2,9
    3b78:	15807016 	blt	r2,r22,3d3c <___vfprintf_internal_r+0x1fcc>
    3b7c:	00800c04 	movi	r2,48
    3b80:	b5800c04 	addi	r22,r22,48
    3b84:	d8802345 	stb	r2,141(sp)
    3b88:	dd802385 	stb	r22,142(sp)
    3b8c:	d88023c4 	addi	r2,sp,143
    3b90:	df0022c4 	addi	fp,sp,139
    3b94:	d8c03317 	ldw	r3,204(sp)
    3b98:	1739c83a 	sub	fp,r2,fp
    3b9c:	d9003317 	ldw	r4,204(sp)
    3ba0:	e0c7883a 	add	r3,fp,r3
    3ba4:	df003a15 	stw	fp,232(sp)
    3ba8:	d8c02e15 	stw	r3,184(sp)
    3bac:	00800044 	movi	r2,1
    3bb0:	1100b30e 	bge	r2,r4,3e80 <___vfprintf_internal_r+0x2110>
    3bb4:	d8c02e17 	ldw	r3,184(sp)
    3bb8:	18c00044 	addi	r3,r3,1
    3bbc:	d8c02e15 	stw	r3,184(sp)
    3bc0:	1805883a 	mov	r2,r3
    3bc4:	1800ac16 	blt	r3,zero,3e78 <___vfprintf_internal_r+0x2108>
    3bc8:	d8003215 	stw	zero,200(sp)
    3bcc:	003e5d06 	br	3544 <__reset+0xfbf03544>
    3bd0:	d9002c17 	ldw	r4,176(sp)
    3bd4:	d9801e04 	addi	r6,sp,120
    3bd8:	b80b883a 	mov	r5,r23
    3bdc:	00092440 	call	9244 <__sprint_r>
    3be0:	1039651e 	bne	r2,zero,2178 <__reset+0xfbf02178>
    3be4:	dc402617 	ldw	r17,152(sp)
    3be8:	d8c02017 	ldw	r3,128(sp)
    3bec:	d8801f17 	ldw	r2,124(sp)
    3bf0:	da000404 	addi	r8,sp,16
    3bf4:	003ed606 	br	3750 <__reset+0xfbf03750>
    3bf8:	582b883a 	mov	r21,r11
    3bfc:	d8002915 	stw	zero,164(sp)
    3c00:	0038bd06 	br	1ef8 <__reset+0xfbf01ef8>
    3c04:	d8802917 	ldw	r2,164(sp)
    3c08:	103e071e 	bne	r2,zero,3428 <__reset+0xfbf03428>
    3c0c:	dc002915 	stw	r16,164(sp)
    3c10:	003e0506 	br	3428 <__reset+0xfbf03428>
    3c14:	d9002917 	ldw	r4,164(sp)
    3c18:	20c00044 	addi	r3,r4,1
    3c1c:	003e0f06 	br	345c <__reset+0xfbf0345c>
    3c20:	01400184 	movi	r5,6
    3c24:	d9402915 	stw	r5,164(sp)
    3c28:	003dff06 	br	3428 <__reset+0xfbf03428>
    3c2c:	d8802104 	addi	r2,sp,132
    3c30:	d8800315 	stw	r2,12(sp)
    3c34:	d8802504 	addi	r2,sp,148
    3c38:	d8800215 	stw	r2,8(sp)
    3c3c:	d8802604 	addi	r2,sp,152
    3c40:	d8800115 	stw	r2,4(sp)
    3c44:	d8802917 	ldw	r2,164(sp)
    3c48:	d9403617 	ldw	r5,216(sp)
    3c4c:	d9002c17 	ldw	r4,176(sp)
    3c50:	d8800015 	stw	r2,0(sp)
    3c54:	01c000c4 	movi	r7,3
    3c58:	980d883a 	mov	r6,r19
    3c5c:	da003d15 	stw	r8,244(sp)
    3c60:	00043940 	call	4394 <_dtoa_r>
    3c64:	d8c02917 	ldw	r3,164(sp)
    3c68:	da003d17 	ldw	r8,244(sp)
    3c6c:	1021883a 	mov	r16,r2
    3c70:	10f9883a 	add	fp,r2,r3
    3c74:	81000007 	ldb	r4,0(r16)
    3c78:	00800c04 	movi	r2,48
    3c7c:	20805e26 	beq	r4,r2,3df8 <___vfprintf_internal_r+0x2088>
    3c80:	d8c02617 	ldw	r3,152(sp)
    3c84:	e0f9883a 	add	fp,fp,r3
    3c88:	003e0a06 	br	34b4 <__reset+0xfbf034b4>
    3c8c:	00c00b44 	movi	r3,45
    3c90:	24e0003c 	xorhi	r19,r4,32768
    3c94:	d8c02a05 	stb	r3,168(sp)
    3c98:	003de906 	br	3440 <__reset+0xfbf03440>
    3c9c:	d8c03217 	ldw	r3,200(sp)
    3ca0:	00c07a0e 	bge	zero,r3,3e8c <___vfprintf_internal_r+0x211c>
    3ca4:	00800044 	movi	r2,1
    3ca8:	d9003317 	ldw	r4,204(sp)
    3cac:	1105883a 	add	r2,r2,r4
    3cb0:	d8802e15 	stw	r2,184(sp)
    3cb4:	10004e16 	blt	r2,zero,3df0 <___vfprintf_internal_r+0x2080>
    3cb8:	044019c4 	movi	r17,103
    3cbc:	003e2106 	br	3544 <__reset+0xfbf03544>
    3cc0:	d9002917 	ldw	r4,164(sp)
    3cc4:	d8802104 	addi	r2,sp,132
    3cc8:	d8800315 	stw	r2,12(sp)
    3ccc:	d9000015 	stw	r4,0(sp)
    3cd0:	d8802504 	addi	r2,sp,148
    3cd4:	d9403617 	ldw	r5,216(sp)
    3cd8:	d9002c17 	ldw	r4,176(sp)
    3cdc:	d8800215 	stw	r2,8(sp)
    3ce0:	d8802604 	addi	r2,sp,152
    3ce4:	d8800115 	stw	r2,4(sp)
    3ce8:	01c000c4 	movi	r7,3
    3cec:	980d883a 	mov	r6,r19
    3cf0:	da003d15 	stw	r8,244(sp)
    3cf4:	00043940 	call	4394 <_dtoa_r>
    3cf8:	d8c02917 	ldw	r3,164(sp)
    3cfc:	da003d17 	ldw	r8,244(sp)
    3d00:	1021883a 	mov	r16,r2
    3d04:	00801184 	movi	r2,70
    3d08:	80f9883a 	add	fp,r16,r3
    3d0c:	88bfd926 	beq	r17,r2,3c74 <__reset+0xfbf03c74>
    3d10:	003de806 	br	34b4 <__reset+0xfbf034b4>
    3d14:	d9002917 	ldw	r4,164(sp)
    3d18:	00c04d0e 	bge	zero,r3,3e50 <___vfprintf_internal_r+0x20e0>
    3d1c:	2000441e 	bne	r4,zero,3e30 <___vfprintf_internal_r+0x20c0>
    3d20:	9480004c 	andi	r18,r18,1
    3d24:	9000421e 	bne	r18,zero,3e30 <___vfprintf_internal_r+0x20c0>
    3d28:	1805883a 	mov	r2,r3
    3d2c:	18007016 	blt	r3,zero,3ef0 <___vfprintf_internal_r+0x2180>
    3d30:	d8c03217 	ldw	r3,200(sp)
    3d34:	d8c02e15 	stw	r3,184(sp)
    3d38:	003e0206 	br	3544 <__reset+0xfbf03544>
    3d3c:	df0022c4 	addi	fp,sp,139
    3d40:	dc002915 	stw	r16,164(sp)
    3d44:	4027883a 	mov	r19,r8
    3d48:	e021883a 	mov	r16,fp
    3d4c:	b009883a 	mov	r4,r22
    3d50:	01400284 	movi	r5,10
    3d54:	000bbf80 	call	bbf8 <__modsi3>
    3d58:	10800c04 	addi	r2,r2,48
    3d5c:	843fffc4 	addi	r16,r16,-1
    3d60:	b009883a 	mov	r4,r22
    3d64:	01400284 	movi	r5,10
    3d68:	80800005 	stb	r2,0(r16)
    3d6c:	000bb740 	call	bb74 <__divsi3>
    3d70:	102d883a 	mov	r22,r2
    3d74:	00800244 	movi	r2,9
    3d78:	15bff416 	blt	r2,r22,3d4c <__reset+0xfbf03d4c>
    3d7c:	9811883a 	mov	r8,r19
    3d80:	b0800c04 	addi	r2,r22,48
    3d84:	8027883a 	mov	r19,r16
    3d88:	997fffc4 	addi	r5,r19,-1
    3d8c:	98bfffc5 	stb	r2,-1(r19)
    3d90:	dc002917 	ldw	r16,164(sp)
    3d94:	2f006a2e 	bgeu	r5,fp,3f40 <___vfprintf_internal_r+0x21d0>
    3d98:	d9c02384 	addi	r7,sp,142
    3d9c:	3ccfc83a 	sub	r7,r7,r19
    3da0:	d9002344 	addi	r4,sp,141
    3da4:	e1cf883a 	add	r7,fp,r7
    3da8:	00000106 	br	3db0 <___vfprintf_internal_r+0x2040>
    3dac:	28800003 	ldbu	r2,0(r5)
    3db0:	20800005 	stb	r2,0(r4)
    3db4:	21000044 	addi	r4,r4,1
    3db8:	29400044 	addi	r5,r5,1
    3dbc:	393ffb1e 	bne	r7,r4,3dac <__reset+0xfbf03dac>
    3dc0:	d8802304 	addi	r2,sp,140
    3dc4:	14c5c83a 	sub	r2,r2,r19
    3dc8:	d8c02344 	addi	r3,sp,141
    3dcc:	1885883a 	add	r2,r3,r2
    3dd0:	003f7006 	br	3b94 <__reset+0xfbf03b94>
    3dd4:	0005883a 	mov	r2,zero
    3dd8:	003f0f06 	br	3a18 <__reset+0xfbf03a18>
    3ddc:	d8c03217 	ldw	r3,200(sp)
    3de0:	18c00044 	addi	r3,r3,1
    3de4:	d8c02e15 	stw	r3,184(sp)
    3de8:	1805883a 	mov	r2,r3
    3dec:	183fb20e 	bge	r3,zero,3cb8 <__reset+0xfbf03cb8>
    3df0:	0005883a 	mov	r2,zero
    3df4:	003fb006 	br	3cb8 <__reset+0xfbf03cb8>
    3df8:	d9003617 	ldw	r4,216(sp)
    3dfc:	000d883a 	mov	r6,zero
    3e00:	000f883a 	mov	r7,zero
    3e04:	980b883a 	mov	r5,r19
    3e08:	d8c03c15 	stw	r3,240(sp)
    3e0c:	da003d15 	stw	r8,244(sp)
    3e10:	000cebc0 	call	cebc <__eqdf2>
    3e14:	d8c03c17 	ldw	r3,240(sp)
    3e18:	da003d17 	ldw	r8,244(sp)
    3e1c:	103f9826 	beq	r2,zero,3c80 <__reset+0xfbf03c80>
    3e20:	00800044 	movi	r2,1
    3e24:	10c7c83a 	sub	r3,r2,r3
    3e28:	d8c02615 	stw	r3,152(sp)
    3e2c:	003f9506 	br	3c84 <__reset+0xfbf03c84>
    3e30:	d9002917 	ldw	r4,164(sp)
    3e34:	d8c03217 	ldw	r3,200(sp)
    3e38:	20800044 	addi	r2,r4,1
    3e3c:	1885883a 	add	r2,r3,r2
    3e40:	d8802e15 	stw	r2,184(sp)
    3e44:	103dbf0e 	bge	r2,zero,3544 <__reset+0xfbf03544>
    3e48:	0005883a 	mov	r2,zero
    3e4c:	003dbd06 	br	3544 <__reset+0xfbf03544>
    3e50:	2000211e 	bne	r4,zero,3ed8 <___vfprintf_internal_r+0x2168>
    3e54:	9480004c 	andi	r18,r18,1
    3e58:	90001f1e 	bne	r18,zero,3ed8 <___vfprintf_internal_r+0x2168>
    3e5c:	00800044 	movi	r2,1
    3e60:	d8802e15 	stw	r2,184(sp)
    3e64:	003db706 	br	3544 <__reset+0xfbf03544>
    3e68:	00800b44 	movi	r2,45
    3e6c:	05adc83a 	sub	r22,zero,r22
    3e70:	d8802305 	stb	r2,140(sp)
    3e74:	003f3f06 	br	3b74 <__reset+0xfbf03b74>
    3e78:	0005883a 	mov	r2,zero
    3e7c:	003f5206 	br	3bc8 <__reset+0xfbf03bc8>
    3e80:	90a4703a 	and	r18,r18,r2
    3e84:	903f4e26 	beq	r18,zero,3bc0 <__reset+0xfbf03bc0>
    3e88:	003f4a06 	br	3bb4 <__reset+0xfbf03bb4>
    3e8c:	00800084 	movi	r2,2
    3e90:	10c5c83a 	sub	r2,r2,r3
    3e94:	003f8406 	br	3ca8 <__reset+0xfbf03ca8>
    3e98:	d8802d17 	ldw	r2,180(sp)
    3e9c:	d9002d17 	ldw	r4,180(sp)
    3ea0:	ac400043 	ldbu	r17,1(r21)
    3ea4:	10800017 	ldw	r2,0(r2)
    3ea8:	582b883a 	mov	r21,r11
    3eac:	d8802915 	stw	r2,164(sp)
    3eb0:	20800104 	addi	r2,r4,4
    3eb4:	d9002917 	ldw	r4,164(sp)
    3eb8:	d8802d15 	stw	r2,180(sp)
    3ebc:	203e7a0e 	bge	r4,zero,38a8 <__reset+0xfbf038a8>
    3ec0:	8c403fcc 	andi	r17,r17,255
    3ec4:	00bfffc4 	movi	r2,-1
    3ec8:	8c40201c 	xori	r17,r17,128
    3ecc:	d8802915 	stw	r2,164(sp)
    3ed0:	8c7fe004 	addi	r17,r17,-128
    3ed4:	00380706 	br	1ef4 <__reset+0xfbf01ef4>
    3ed8:	d8c02917 	ldw	r3,164(sp)
    3edc:	18c00084 	addi	r3,r3,2
    3ee0:	d8c02e15 	stw	r3,184(sp)
    3ee4:	1805883a 	mov	r2,r3
    3ee8:	183d960e 	bge	r3,zero,3544 <__reset+0xfbf03544>
    3eec:	003fd606 	br	3e48 <__reset+0xfbf03e48>
    3ef0:	0005883a 	mov	r2,zero
    3ef4:	003f8e06 	br	3d30 <__reset+0xfbf03d30>
    3ef8:	9080004c 	andi	r2,r18,1
    3efc:	103f811e 	bne	r2,zero,3d04 <__reset+0xfbf03d04>
    3f00:	d8802117 	ldw	r2,132(sp)
    3f04:	1405c83a 	sub	r2,r2,r16
    3f08:	d8803315 	stw	r2,204(sp)
    3f0c:	b47ef326 	beq	r22,r17,3adc <__reset+0xfbf03adc>
    3f10:	dd802617 	ldw	r22,152(sp)
    3f14:	003f1106 	br	3b5c <__reset+0xfbf03b5c>
    3f18:	d9c02785 	stb	r7,158(sp)
    3f1c:	00390406 	br	2330 <__reset+0xfbf02330>
    3f20:	d9c02785 	stb	r7,158(sp)
    3f24:	0038d306 	br	2274 <__reset+0xfbf02274>
    3f28:	d9c02785 	stb	r7,158(sp)
    3f2c:	003a6106 	br	28b4 <__reset+0xfbf028b4>
    3f30:	d9c02785 	stb	r7,158(sp)
    3f34:	003af806 	br	2b18 <__reset+0xfbf02b18>
    3f38:	0005883a 	mov	r2,zero
    3f3c:	003d7e06 	br	3538 <__reset+0xfbf03538>
    3f40:	d8802344 	addi	r2,sp,141
    3f44:	003f1306 	br	3b94 <__reset+0xfbf03b94>
    3f48:	d9c02785 	stb	r7,158(sp)
    3f4c:	00392306 	br	23dc <__reset+0xfbf023dc>
    3f50:	d9c02785 	stb	r7,158(sp)
    3f54:	003aa906 	br	29fc <__reset+0xfbf029fc>
    3f58:	d9c02785 	stb	r7,158(sp)
    3f5c:	003a3d06 	br	2854 <__reset+0xfbf02854>
    3f60:	d9c02785 	stb	r7,158(sp)
    3f64:	003aca06 	br	2a90 <__reset+0xfbf02a90>

00003f68 <__vfprintf_internal>:
    3f68:	00800074 	movhi	r2,1
    3f6c:	1089e504 	addi	r2,r2,10132
    3f70:	300f883a 	mov	r7,r6
    3f74:	280d883a 	mov	r6,r5
    3f78:	200b883a 	mov	r5,r4
    3f7c:	11000017 	ldw	r4,0(r2)
    3f80:	0001d701 	jmpi	1d70 <___vfprintf_internal_r>

00003f84 <__sbprintf>:
    3f84:	2880030b 	ldhu	r2,12(r5)
    3f88:	2ac01917 	ldw	r11,100(r5)
    3f8c:	2a80038b 	ldhu	r10,14(r5)
    3f90:	2a400717 	ldw	r9,28(r5)
    3f94:	2a000917 	ldw	r8,36(r5)
    3f98:	defee204 	addi	sp,sp,-1144
    3f9c:	00c10004 	movi	r3,1024
    3fa0:	dc011a15 	stw	r16,1128(sp)
    3fa4:	10bfff4c 	andi	r2,r2,65533
    3fa8:	2821883a 	mov	r16,r5
    3fac:	d8cb883a 	add	r5,sp,r3
    3fb0:	dc811c15 	stw	r18,1136(sp)
    3fb4:	dc411b15 	stw	r17,1132(sp)
    3fb8:	dfc11d15 	stw	ra,1140(sp)
    3fbc:	2025883a 	mov	r18,r4
    3fc0:	d881030d 	sth	r2,1036(sp)
    3fc4:	dac11915 	stw	r11,1124(sp)
    3fc8:	da81038d 	sth	r10,1038(sp)
    3fcc:	da410715 	stw	r9,1052(sp)
    3fd0:	da010915 	stw	r8,1060(sp)
    3fd4:	dec10015 	stw	sp,1024(sp)
    3fd8:	dec10415 	stw	sp,1040(sp)
    3fdc:	d8c10215 	stw	r3,1032(sp)
    3fe0:	d8c10515 	stw	r3,1044(sp)
    3fe4:	d8010615 	stw	zero,1048(sp)
    3fe8:	0001d700 	call	1d70 <___vfprintf_internal_r>
    3fec:	1023883a 	mov	r17,r2
    3ff0:	10000416 	blt	r2,zero,4004 <__sbprintf+0x80>
    3ff4:	d9410004 	addi	r5,sp,1024
    3ff8:	9009883a 	mov	r4,r18
    3ffc:	0005c380 	call	5c38 <_fflush_r>
    4000:	10000d1e 	bne	r2,zero,4038 <__sbprintf+0xb4>
    4004:	d881030b 	ldhu	r2,1036(sp)
    4008:	1080100c 	andi	r2,r2,64
    400c:	10000326 	beq	r2,zero,401c <__sbprintf+0x98>
    4010:	8080030b 	ldhu	r2,12(r16)
    4014:	10801014 	ori	r2,r2,64
    4018:	8080030d 	sth	r2,12(r16)
    401c:	8805883a 	mov	r2,r17
    4020:	dfc11d17 	ldw	ra,1140(sp)
    4024:	dc811c17 	ldw	r18,1136(sp)
    4028:	dc411b17 	ldw	r17,1132(sp)
    402c:	dc011a17 	ldw	r16,1128(sp)
    4030:	dec11e04 	addi	sp,sp,1144
    4034:	f800283a 	ret
    4038:	047fffc4 	movi	r17,-1
    403c:	003ff106 	br	4004 <__reset+0xfbf04004>

00004040 <__swsetup_r>:
    4040:	00800074 	movhi	r2,1
    4044:	defffd04 	addi	sp,sp,-12
    4048:	1089e504 	addi	r2,r2,10132
    404c:	dc400115 	stw	r17,4(sp)
    4050:	2023883a 	mov	r17,r4
    4054:	11000017 	ldw	r4,0(r2)
    4058:	dc000015 	stw	r16,0(sp)
    405c:	dfc00215 	stw	ra,8(sp)
    4060:	2821883a 	mov	r16,r5
    4064:	20000226 	beq	r4,zero,4070 <__swsetup_r+0x30>
    4068:	20800e17 	ldw	r2,56(r4)
    406c:	10003126 	beq	r2,zero,4134 <__swsetup_r+0xf4>
    4070:	8080030b 	ldhu	r2,12(r16)
    4074:	10c0020c 	andi	r3,r2,8
    4078:	1009883a 	mov	r4,r2
    407c:	18000f26 	beq	r3,zero,40bc <__swsetup_r+0x7c>
    4080:	80c00417 	ldw	r3,16(r16)
    4084:	18001526 	beq	r3,zero,40dc <__swsetup_r+0x9c>
    4088:	1100004c 	andi	r4,r2,1
    408c:	20001c1e 	bne	r4,zero,4100 <__swsetup_r+0xc0>
    4090:	1080008c 	andi	r2,r2,2
    4094:	1000291e 	bne	r2,zero,413c <__swsetup_r+0xfc>
    4098:	80800517 	ldw	r2,20(r16)
    409c:	80800215 	stw	r2,8(r16)
    40a0:	18001c26 	beq	r3,zero,4114 <__swsetup_r+0xd4>
    40a4:	0005883a 	mov	r2,zero
    40a8:	dfc00217 	ldw	ra,8(sp)
    40ac:	dc400117 	ldw	r17,4(sp)
    40b0:	dc000017 	ldw	r16,0(sp)
    40b4:	dec00304 	addi	sp,sp,12
    40b8:	f800283a 	ret
    40bc:	2080040c 	andi	r2,r4,16
    40c0:	10002e26 	beq	r2,zero,417c <__swsetup_r+0x13c>
    40c4:	2080010c 	andi	r2,r4,4
    40c8:	10001e1e 	bne	r2,zero,4144 <__swsetup_r+0x104>
    40cc:	80c00417 	ldw	r3,16(r16)
    40d0:	20800214 	ori	r2,r4,8
    40d4:	8080030d 	sth	r2,12(r16)
    40d8:	183feb1e 	bne	r3,zero,4088 <__reset+0xfbf04088>
    40dc:	1100a00c 	andi	r4,r2,640
    40e0:	01408004 	movi	r5,512
    40e4:	217fe826 	beq	r4,r5,4088 <__reset+0xfbf04088>
    40e8:	800b883a 	mov	r5,r16
    40ec:	8809883a 	mov	r4,r17
    40f0:	0006bb80 	call	6bb8 <__smakebuf_r>
    40f4:	8080030b 	ldhu	r2,12(r16)
    40f8:	80c00417 	ldw	r3,16(r16)
    40fc:	003fe206 	br	4088 <__reset+0xfbf04088>
    4100:	80800517 	ldw	r2,20(r16)
    4104:	80000215 	stw	zero,8(r16)
    4108:	0085c83a 	sub	r2,zero,r2
    410c:	80800615 	stw	r2,24(r16)
    4110:	183fe41e 	bne	r3,zero,40a4 <__reset+0xfbf040a4>
    4114:	80c0030b 	ldhu	r3,12(r16)
    4118:	0005883a 	mov	r2,zero
    411c:	1900200c 	andi	r4,r3,128
    4120:	203fe126 	beq	r4,zero,40a8 <__reset+0xfbf040a8>
    4124:	18c01014 	ori	r3,r3,64
    4128:	80c0030d 	sth	r3,12(r16)
    412c:	00bfffc4 	movi	r2,-1
    4130:	003fdd06 	br	40a8 <__reset+0xfbf040a8>
    4134:	00060140 	call	6014 <__sinit>
    4138:	003fcd06 	br	4070 <__reset+0xfbf04070>
    413c:	0005883a 	mov	r2,zero
    4140:	003fd606 	br	409c <__reset+0xfbf0409c>
    4144:	81400c17 	ldw	r5,48(r16)
    4148:	28000626 	beq	r5,zero,4164 <__swsetup_r+0x124>
    414c:	80801004 	addi	r2,r16,64
    4150:	28800326 	beq	r5,r2,4160 <__swsetup_r+0x120>
    4154:	8809883a 	mov	r4,r17
    4158:	00061880 	call	6188 <_free_r>
    415c:	8100030b 	ldhu	r4,12(r16)
    4160:	80000c15 	stw	zero,48(r16)
    4164:	80c00417 	ldw	r3,16(r16)
    4168:	00bff6c4 	movi	r2,-37
    416c:	1108703a 	and	r4,r2,r4
    4170:	80000115 	stw	zero,4(r16)
    4174:	80c00015 	stw	r3,0(r16)
    4178:	003fd506 	br	40d0 <__reset+0xfbf040d0>
    417c:	00800244 	movi	r2,9
    4180:	88800015 	stw	r2,0(r17)
    4184:	20801014 	ori	r2,r4,64
    4188:	8080030d 	sth	r2,12(r16)
    418c:	00bfffc4 	movi	r2,-1
    4190:	003fc506 	br	40a8 <__reset+0xfbf040a8>

00004194 <quorem>:
    4194:	defff704 	addi	sp,sp,-36
    4198:	dc800215 	stw	r18,8(sp)
    419c:	20800417 	ldw	r2,16(r4)
    41a0:	2c800417 	ldw	r18,16(r5)
    41a4:	dfc00815 	stw	ra,32(sp)
    41a8:	ddc00715 	stw	r23,28(sp)
    41ac:	dd800615 	stw	r22,24(sp)
    41b0:	dd400515 	stw	r21,20(sp)
    41b4:	dd000415 	stw	r20,16(sp)
    41b8:	dcc00315 	stw	r19,12(sp)
    41bc:	dc400115 	stw	r17,4(sp)
    41c0:	dc000015 	stw	r16,0(sp)
    41c4:	14807116 	blt	r2,r18,438c <quorem+0x1f8>
    41c8:	94bfffc4 	addi	r18,r18,-1
    41cc:	94ad883a 	add	r22,r18,r18
    41d0:	b5ad883a 	add	r22,r22,r22
    41d4:	2c400504 	addi	r17,r5,20
    41d8:	8da9883a 	add	r20,r17,r22
    41dc:	25400504 	addi	r21,r4,20
    41e0:	282f883a 	mov	r23,r5
    41e4:	adad883a 	add	r22,r21,r22
    41e8:	a1400017 	ldw	r5,0(r20)
    41ec:	2021883a 	mov	r16,r4
    41f0:	b1000017 	ldw	r4,0(r22)
    41f4:	29400044 	addi	r5,r5,1
    41f8:	000bc6c0 	call	bc6c <__udivsi3>
    41fc:	1027883a 	mov	r19,r2
    4200:	10002c26 	beq	r2,zero,42b4 <quorem+0x120>
    4204:	a813883a 	mov	r9,r21
    4208:	880b883a 	mov	r5,r17
    420c:	0009883a 	mov	r4,zero
    4210:	000d883a 	mov	r6,zero
    4214:	2a000017 	ldw	r8,0(r5)
    4218:	49c00017 	ldw	r7,0(r9)
    421c:	29400104 	addi	r5,r5,4
    4220:	40bfffcc 	andi	r2,r8,65535
    4224:	14c5383a 	mul	r2,r2,r19
    4228:	4010d43a 	srli	r8,r8,16
    422c:	38ffffcc 	andi	r3,r7,65535
    4230:	1105883a 	add	r2,r2,r4
    4234:	1008d43a 	srli	r4,r2,16
    4238:	44d1383a 	mul	r8,r8,r19
    423c:	198d883a 	add	r6,r3,r6
    4240:	10ffffcc 	andi	r3,r2,65535
    4244:	30c7c83a 	sub	r3,r6,r3
    4248:	380ed43a 	srli	r7,r7,16
    424c:	4105883a 	add	r2,r8,r4
    4250:	180dd43a 	srai	r6,r3,16
    4254:	113fffcc 	andi	r4,r2,65535
    4258:	390fc83a 	sub	r7,r7,r4
    425c:	398d883a 	add	r6,r7,r6
    4260:	300e943a 	slli	r7,r6,16
    4264:	18ffffcc 	andi	r3,r3,65535
    4268:	1008d43a 	srli	r4,r2,16
    426c:	38ceb03a 	or	r7,r7,r3
    4270:	49c00015 	stw	r7,0(r9)
    4274:	300dd43a 	srai	r6,r6,16
    4278:	4a400104 	addi	r9,r9,4
    427c:	a17fe52e 	bgeu	r20,r5,4214 <__reset+0xfbf04214>
    4280:	b0800017 	ldw	r2,0(r22)
    4284:	10000b1e 	bne	r2,zero,42b4 <quorem+0x120>
    4288:	b0bfff04 	addi	r2,r22,-4
    428c:	a880082e 	bgeu	r21,r2,42b0 <quorem+0x11c>
    4290:	b0ffff17 	ldw	r3,-4(r22)
    4294:	18000326 	beq	r3,zero,42a4 <quorem+0x110>
    4298:	00000506 	br	42b0 <quorem+0x11c>
    429c:	10c00017 	ldw	r3,0(r2)
    42a0:	1800031e 	bne	r3,zero,42b0 <quorem+0x11c>
    42a4:	10bfff04 	addi	r2,r2,-4
    42a8:	94bfffc4 	addi	r18,r18,-1
    42ac:	a8bffb36 	bltu	r21,r2,429c <__reset+0xfbf0429c>
    42b0:	84800415 	stw	r18,16(r16)
    42b4:	b80b883a 	mov	r5,r23
    42b8:	8009883a 	mov	r4,r16
    42bc:	00081d00 	call	81d0 <__mcmp>
    42c0:	10002616 	blt	r2,zero,435c <quorem+0x1c8>
    42c4:	9cc00044 	addi	r19,r19,1
    42c8:	a805883a 	mov	r2,r21
    42cc:	000b883a 	mov	r5,zero
    42d0:	11000017 	ldw	r4,0(r2)
    42d4:	89800017 	ldw	r6,0(r17)
    42d8:	10800104 	addi	r2,r2,4
    42dc:	20ffffcc 	andi	r3,r4,65535
    42e0:	194b883a 	add	r5,r3,r5
    42e4:	30ffffcc 	andi	r3,r6,65535
    42e8:	28c7c83a 	sub	r3,r5,r3
    42ec:	300cd43a 	srli	r6,r6,16
    42f0:	2008d43a 	srli	r4,r4,16
    42f4:	180bd43a 	srai	r5,r3,16
    42f8:	18ffffcc 	andi	r3,r3,65535
    42fc:	2189c83a 	sub	r4,r4,r6
    4300:	2149883a 	add	r4,r4,r5
    4304:	200c943a 	slli	r6,r4,16
    4308:	8c400104 	addi	r17,r17,4
    430c:	200bd43a 	srai	r5,r4,16
    4310:	30c6b03a 	or	r3,r6,r3
    4314:	10ffff15 	stw	r3,-4(r2)
    4318:	a47fed2e 	bgeu	r20,r17,42d0 <__reset+0xfbf042d0>
    431c:	9485883a 	add	r2,r18,r18
    4320:	1085883a 	add	r2,r2,r2
    4324:	a887883a 	add	r3,r21,r2
    4328:	18800017 	ldw	r2,0(r3)
    432c:	10000b1e 	bne	r2,zero,435c <quorem+0x1c8>
    4330:	18bfff04 	addi	r2,r3,-4
    4334:	a880082e 	bgeu	r21,r2,4358 <quorem+0x1c4>
    4338:	18ffff17 	ldw	r3,-4(r3)
    433c:	18000326 	beq	r3,zero,434c <quorem+0x1b8>
    4340:	00000506 	br	4358 <quorem+0x1c4>
    4344:	10c00017 	ldw	r3,0(r2)
    4348:	1800031e 	bne	r3,zero,4358 <quorem+0x1c4>
    434c:	10bfff04 	addi	r2,r2,-4
    4350:	94bfffc4 	addi	r18,r18,-1
    4354:	a8bffb36 	bltu	r21,r2,4344 <__reset+0xfbf04344>
    4358:	84800415 	stw	r18,16(r16)
    435c:	9805883a 	mov	r2,r19
    4360:	dfc00817 	ldw	ra,32(sp)
    4364:	ddc00717 	ldw	r23,28(sp)
    4368:	dd800617 	ldw	r22,24(sp)
    436c:	dd400517 	ldw	r21,20(sp)
    4370:	dd000417 	ldw	r20,16(sp)
    4374:	dcc00317 	ldw	r19,12(sp)
    4378:	dc800217 	ldw	r18,8(sp)
    437c:	dc400117 	ldw	r17,4(sp)
    4380:	dc000017 	ldw	r16,0(sp)
    4384:	dec00904 	addi	sp,sp,36
    4388:	f800283a 	ret
    438c:	0005883a 	mov	r2,zero
    4390:	003ff306 	br	4360 <__reset+0xfbf04360>

00004394 <_dtoa_r>:
    4394:	20801017 	ldw	r2,64(r4)
    4398:	deffde04 	addi	sp,sp,-136
    439c:	df002015 	stw	fp,128(sp)
    43a0:	dcc01b15 	stw	r19,108(sp)
    43a4:	dc801a15 	stw	r18,104(sp)
    43a8:	dc401915 	stw	r17,100(sp)
    43ac:	dc001815 	stw	r16,96(sp)
    43b0:	dfc02115 	stw	ra,132(sp)
    43b4:	ddc01f15 	stw	r23,124(sp)
    43b8:	dd801e15 	stw	r22,120(sp)
    43bc:	dd401d15 	stw	r21,116(sp)
    43c0:	dd001c15 	stw	r20,112(sp)
    43c4:	d9c00315 	stw	r7,12(sp)
    43c8:	2039883a 	mov	fp,r4
    43cc:	3023883a 	mov	r17,r6
    43d0:	2825883a 	mov	r18,r5
    43d4:	dc002417 	ldw	r16,144(sp)
    43d8:	3027883a 	mov	r19,r6
    43dc:	10000826 	beq	r2,zero,4400 <_dtoa_r+0x6c>
    43e0:	21801117 	ldw	r6,68(r4)
    43e4:	00c00044 	movi	r3,1
    43e8:	100b883a 	mov	r5,r2
    43ec:	1986983a 	sll	r3,r3,r6
    43f0:	11800115 	stw	r6,4(r2)
    43f4:	10c00215 	stw	r3,8(r2)
    43f8:	00079b00 	call	79b0 <_Bfree>
    43fc:	e0001015 	stw	zero,64(fp)
    4400:	88002e16 	blt	r17,zero,44bc <_dtoa_r+0x128>
    4404:	80000015 	stw	zero,0(r16)
    4408:	889ffc2c 	andhi	r2,r17,32752
    440c:	00dffc34 	movhi	r3,32752
    4410:	10c01c26 	beq	r2,r3,4484 <_dtoa_r+0xf0>
    4414:	000d883a 	mov	r6,zero
    4418:	000f883a 	mov	r7,zero
    441c:	9009883a 	mov	r4,r18
    4420:	980b883a 	mov	r5,r19
    4424:	000cebc0 	call	cebc <__eqdf2>
    4428:	10002b1e 	bne	r2,zero,44d8 <_dtoa_r+0x144>
    442c:	d9c02317 	ldw	r7,140(sp)
    4430:	00800044 	movi	r2,1
    4434:	38800015 	stw	r2,0(r7)
    4438:	d8802517 	ldw	r2,148(sp)
    443c:	10019e26 	beq	r2,zero,4ab8 <_dtoa_r+0x724>
    4440:	d8c02517 	ldw	r3,148(sp)
    4444:	00800074 	movhi	r2,1
    4448:	10814644 	addi	r2,r2,1305
    444c:	18800015 	stw	r2,0(r3)
    4450:	10bfffc4 	addi	r2,r2,-1
    4454:	dfc02117 	ldw	ra,132(sp)
    4458:	df002017 	ldw	fp,128(sp)
    445c:	ddc01f17 	ldw	r23,124(sp)
    4460:	dd801e17 	ldw	r22,120(sp)
    4464:	dd401d17 	ldw	r21,116(sp)
    4468:	dd001c17 	ldw	r20,112(sp)
    446c:	dcc01b17 	ldw	r19,108(sp)
    4470:	dc801a17 	ldw	r18,104(sp)
    4474:	dc401917 	ldw	r17,100(sp)
    4478:	dc001817 	ldw	r16,96(sp)
    447c:	dec02204 	addi	sp,sp,136
    4480:	f800283a 	ret
    4484:	d8c02317 	ldw	r3,140(sp)
    4488:	0089c3c4 	movi	r2,9999
    448c:	18800015 	stw	r2,0(r3)
    4490:	90017726 	beq	r18,zero,4a70 <_dtoa_r+0x6dc>
    4494:	00800074 	movhi	r2,1
    4498:	10815204 	addi	r2,r2,1352
    449c:	d9002517 	ldw	r4,148(sp)
    44a0:	203fec26 	beq	r4,zero,4454 <__reset+0xfbf04454>
    44a4:	10c000c7 	ldb	r3,3(r2)
    44a8:	1801781e 	bne	r3,zero,4a8c <_dtoa_r+0x6f8>
    44ac:	10c000c4 	addi	r3,r2,3
    44b0:	d9802517 	ldw	r6,148(sp)
    44b4:	30c00015 	stw	r3,0(r6)
    44b8:	003fe606 	br	4454 <__reset+0xfbf04454>
    44bc:	04e00034 	movhi	r19,32768
    44c0:	9cffffc4 	addi	r19,r19,-1
    44c4:	00800044 	movi	r2,1
    44c8:	8ce6703a 	and	r19,r17,r19
    44cc:	80800015 	stw	r2,0(r16)
    44d0:	9823883a 	mov	r17,r19
    44d4:	003fcc06 	br	4408 <__reset+0xfbf04408>
    44d8:	d8800204 	addi	r2,sp,8
    44dc:	d8800015 	stw	r2,0(sp)
    44e0:	d9c00104 	addi	r7,sp,4
    44e4:	900b883a 	mov	r5,r18
    44e8:	980d883a 	mov	r6,r19
    44ec:	e009883a 	mov	r4,fp
    44f0:	8820d53a 	srli	r16,r17,20
    44f4:	000859c0 	call	859c <__d2b>
    44f8:	d8800915 	stw	r2,36(sp)
    44fc:	8001651e 	bne	r16,zero,4a94 <_dtoa_r+0x700>
    4500:	dd800217 	ldw	r22,8(sp)
    4504:	dc000117 	ldw	r16,4(sp)
    4508:	00800804 	movi	r2,32
    450c:	b421883a 	add	r16,r22,r16
    4510:	80c10c84 	addi	r3,r16,1074
    4514:	10c2d10e 	bge	r2,r3,505c <_dtoa_r+0xcc8>
    4518:	00801004 	movi	r2,64
    451c:	81010484 	addi	r4,r16,1042
    4520:	10c7c83a 	sub	r3,r2,r3
    4524:	9108d83a 	srl	r4,r18,r4
    4528:	88e2983a 	sll	r17,r17,r3
    452c:	2448b03a 	or	r4,r4,r17
    4530:	000e2840 	call	e284 <__floatunsidf>
    4534:	017f8434 	movhi	r5,65040
    4538:	01800044 	movi	r6,1
    453c:	1009883a 	mov	r4,r2
    4540:	194b883a 	add	r5,r3,r5
    4544:	843fffc4 	addi	r16,r16,-1
    4548:	d9801115 	stw	r6,68(sp)
    454c:	000d883a 	mov	r6,zero
    4550:	01cffe34 	movhi	r7,16376
    4554:	000d82c0 	call	d82c <__subdf3>
    4558:	0198dbf4 	movhi	r6,25455
    455c:	01cff4f4 	movhi	r7,16339
    4560:	3190d844 	addi	r6,r6,17249
    4564:	39e1e9c4 	addi	r7,r7,-30809
    4568:	1009883a 	mov	r4,r2
    456c:	180b883a 	mov	r5,r3
    4570:	000d1140 	call	d114 <__muldf3>
    4574:	01a2d874 	movhi	r6,35681
    4578:	01cff1f4 	movhi	r7,16327
    457c:	31b22cc4 	addi	r6,r6,-14157
    4580:	39e28a04 	addi	r7,r7,-30168
    4584:	180b883a 	mov	r5,r3
    4588:	1009883a 	mov	r4,r2
    458c:	000bd280 	call	bd28 <__adddf3>
    4590:	8009883a 	mov	r4,r16
    4594:	1029883a 	mov	r20,r2
    4598:	1823883a 	mov	r17,r3
    459c:	000e1a80 	call	e1a8 <__floatsidf>
    45a0:	019427f4 	movhi	r6,20639
    45a4:	01cff4f4 	movhi	r7,16339
    45a8:	319e7ec4 	addi	r6,r6,31227
    45ac:	39d104c4 	addi	r7,r7,17427
    45b0:	1009883a 	mov	r4,r2
    45b4:	180b883a 	mov	r5,r3
    45b8:	000d1140 	call	d114 <__muldf3>
    45bc:	100d883a 	mov	r6,r2
    45c0:	180f883a 	mov	r7,r3
    45c4:	a009883a 	mov	r4,r20
    45c8:	880b883a 	mov	r5,r17
    45cc:	000bd280 	call	bd28 <__adddf3>
    45d0:	1009883a 	mov	r4,r2
    45d4:	180b883a 	mov	r5,r3
    45d8:	1029883a 	mov	r20,r2
    45dc:	1823883a 	mov	r17,r3
    45e0:	000e1280 	call	e128 <__fixdfsi>
    45e4:	000d883a 	mov	r6,zero
    45e8:	000f883a 	mov	r7,zero
    45ec:	a009883a 	mov	r4,r20
    45f0:	880b883a 	mov	r5,r17
    45f4:	d8800515 	stw	r2,20(sp)
    45f8:	000d0200 	call	d020 <__ledf2>
    45fc:	10028716 	blt	r2,zero,501c <_dtoa_r+0xc88>
    4600:	d8c00517 	ldw	r3,20(sp)
    4604:	00800584 	movi	r2,22
    4608:	10c27536 	bltu	r2,r3,4fe0 <_dtoa_r+0xc4c>
    460c:	180490fa 	slli	r2,r3,3
    4610:	00c00074 	movhi	r3,1
    4614:	18c16e04 	addi	r3,r3,1464
    4618:	1885883a 	add	r2,r3,r2
    461c:	11000017 	ldw	r4,0(r2)
    4620:	11400117 	ldw	r5,4(r2)
    4624:	900d883a 	mov	r6,r18
    4628:	980f883a 	mov	r7,r19
    462c:	000cf440 	call	cf44 <__gedf2>
    4630:	00828d0e 	bge	zero,r2,5068 <_dtoa_r+0xcd4>
    4634:	d9000517 	ldw	r4,20(sp)
    4638:	d8000e15 	stw	zero,56(sp)
    463c:	213fffc4 	addi	r4,r4,-1
    4640:	d9000515 	stw	r4,20(sp)
    4644:	b42dc83a 	sub	r22,r22,r16
    4648:	b5bfffc4 	addi	r22,r22,-1
    464c:	b0026f16 	blt	r22,zero,500c <_dtoa_r+0xc78>
    4650:	d8000815 	stw	zero,32(sp)
    4654:	d9c00517 	ldw	r7,20(sp)
    4658:	38026416 	blt	r7,zero,4fec <_dtoa_r+0xc58>
    465c:	b1ed883a 	add	r22,r22,r7
    4660:	d9c00d15 	stw	r7,52(sp)
    4664:	d8000a15 	stw	zero,40(sp)
    4668:	d9800317 	ldw	r6,12(sp)
    466c:	00800244 	movi	r2,9
    4670:	11811436 	bltu	r2,r6,4ac4 <_dtoa_r+0x730>
    4674:	00800144 	movi	r2,5
    4678:	1184e10e 	bge	r2,r6,5a00 <_dtoa_r+0x166c>
    467c:	31bfff04 	addi	r6,r6,-4
    4680:	d9800315 	stw	r6,12(sp)
    4684:	0023883a 	mov	r17,zero
    4688:	d9800317 	ldw	r6,12(sp)
    468c:	008000c4 	movi	r2,3
    4690:	30836726 	beq	r6,r2,5430 <_dtoa_r+0x109c>
    4694:	1183410e 	bge	r2,r6,539c <_dtoa_r+0x1008>
    4698:	d9c00317 	ldw	r7,12(sp)
    469c:	00800104 	movi	r2,4
    46a0:	38827c26 	beq	r7,r2,5094 <_dtoa_r+0xd00>
    46a4:	00800144 	movi	r2,5
    46a8:	3884c41e 	bne	r7,r2,59bc <_dtoa_r+0x1628>
    46ac:	00800044 	movi	r2,1
    46b0:	d8800b15 	stw	r2,44(sp)
    46b4:	d8c00517 	ldw	r3,20(sp)
    46b8:	d9002217 	ldw	r4,136(sp)
    46bc:	1907883a 	add	r3,r3,r4
    46c0:	19800044 	addi	r6,r3,1
    46c4:	d8c00c15 	stw	r3,48(sp)
    46c8:	d9800615 	stw	r6,24(sp)
    46cc:	0183a40e 	bge	zero,r6,5560 <_dtoa_r+0x11cc>
    46d0:	d9800617 	ldw	r6,24(sp)
    46d4:	3021883a 	mov	r16,r6
    46d8:	e0001115 	stw	zero,68(fp)
    46dc:	008005c4 	movi	r2,23
    46e0:	1184c92e 	bgeu	r2,r6,5a08 <_dtoa_r+0x1674>
    46e4:	00c00044 	movi	r3,1
    46e8:	00800104 	movi	r2,4
    46ec:	1085883a 	add	r2,r2,r2
    46f0:	11000504 	addi	r4,r2,20
    46f4:	180b883a 	mov	r5,r3
    46f8:	18c00044 	addi	r3,r3,1
    46fc:	313ffb2e 	bgeu	r6,r4,46ec <__reset+0xfbf046ec>
    4700:	e1401115 	stw	r5,68(fp)
    4704:	e009883a 	mov	r4,fp
    4708:	00079080 	call	7908 <_Balloc>
    470c:	d8800715 	stw	r2,28(sp)
    4710:	e0801015 	stw	r2,64(fp)
    4714:	00800384 	movi	r2,14
    4718:	1400f736 	bltu	r2,r16,4af8 <_dtoa_r+0x764>
    471c:	8800f626 	beq	r17,zero,4af8 <_dtoa_r+0x764>
    4720:	d9c00517 	ldw	r7,20(sp)
    4724:	01c39a0e 	bge	zero,r7,5590 <_dtoa_r+0x11fc>
    4728:	388003cc 	andi	r2,r7,15
    472c:	100490fa 	slli	r2,r2,3
    4730:	382bd13a 	srai	r21,r7,4
    4734:	00c00074 	movhi	r3,1
    4738:	18c16e04 	addi	r3,r3,1464
    473c:	1885883a 	add	r2,r3,r2
    4740:	a8c0040c 	andi	r3,r21,16
    4744:	12400017 	ldw	r9,0(r2)
    4748:	12000117 	ldw	r8,4(r2)
    474c:	18037926 	beq	r3,zero,5534 <_dtoa_r+0x11a0>
    4750:	00800074 	movhi	r2,1
    4754:	10816404 	addi	r2,r2,1424
    4758:	11800817 	ldw	r6,32(r2)
    475c:	11c00917 	ldw	r7,36(r2)
    4760:	9009883a 	mov	r4,r18
    4764:	980b883a 	mov	r5,r19
    4768:	da001715 	stw	r8,92(sp)
    476c:	da401615 	stw	r9,88(sp)
    4770:	000c5d40 	call	c5d4 <__divdf3>
    4774:	da001717 	ldw	r8,92(sp)
    4778:	da401617 	ldw	r9,88(sp)
    477c:	ad4003cc 	andi	r21,r21,15
    4780:	040000c4 	movi	r16,3
    4784:	1023883a 	mov	r17,r2
    4788:	1829883a 	mov	r20,r3
    478c:	a8001126 	beq	r21,zero,47d4 <_dtoa_r+0x440>
    4790:	05c00074 	movhi	r23,1
    4794:	bdc16404 	addi	r23,r23,1424
    4798:	4805883a 	mov	r2,r9
    479c:	4007883a 	mov	r3,r8
    47a0:	a980004c 	andi	r6,r21,1
    47a4:	1009883a 	mov	r4,r2
    47a8:	a82bd07a 	srai	r21,r21,1
    47ac:	180b883a 	mov	r5,r3
    47b0:	30000426 	beq	r6,zero,47c4 <_dtoa_r+0x430>
    47b4:	b9800017 	ldw	r6,0(r23)
    47b8:	b9c00117 	ldw	r7,4(r23)
    47bc:	84000044 	addi	r16,r16,1
    47c0:	000d1140 	call	d114 <__muldf3>
    47c4:	bdc00204 	addi	r23,r23,8
    47c8:	a83ff51e 	bne	r21,zero,47a0 <__reset+0xfbf047a0>
    47cc:	1013883a 	mov	r9,r2
    47d0:	1811883a 	mov	r8,r3
    47d4:	480d883a 	mov	r6,r9
    47d8:	400f883a 	mov	r7,r8
    47dc:	8809883a 	mov	r4,r17
    47e0:	a00b883a 	mov	r5,r20
    47e4:	000c5d40 	call	c5d4 <__divdf3>
    47e8:	d8800f15 	stw	r2,60(sp)
    47ec:	d8c01015 	stw	r3,64(sp)
    47f0:	d8c00e17 	ldw	r3,56(sp)
    47f4:	18000626 	beq	r3,zero,4810 <_dtoa_r+0x47c>
    47f8:	d9000f17 	ldw	r4,60(sp)
    47fc:	d9401017 	ldw	r5,64(sp)
    4800:	000d883a 	mov	r6,zero
    4804:	01cffc34 	movhi	r7,16368
    4808:	000d0200 	call	d020 <__ledf2>
    480c:	10040b16 	blt	r2,zero,583c <_dtoa_r+0x14a8>
    4810:	8009883a 	mov	r4,r16
    4814:	000e1a80 	call	e1a8 <__floatsidf>
    4818:	d9800f17 	ldw	r6,60(sp)
    481c:	d9c01017 	ldw	r7,64(sp)
    4820:	1009883a 	mov	r4,r2
    4824:	180b883a 	mov	r5,r3
    4828:	000d1140 	call	d114 <__muldf3>
    482c:	000d883a 	mov	r6,zero
    4830:	01d00734 	movhi	r7,16412
    4834:	1009883a 	mov	r4,r2
    4838:	180b883a 	mov	r5,r3
    483c:	000bd280 	call	bd28 <__adddf3>
    4840:	1021883a 	mov	r16,r2
    4844:	d8800617 	ldw	r2,24(sp)
    4848:	047f3034 	movhi	r17,64704
    484c:	1c63883a 	add	r17,r3,r17
    4850:	10031826 	beq	r2,zero,54b4 <_dtoa_r+0x1120>
    4854:	d8c00517 	ldw	r3,20(sp)
    4858:	db000617 	ldw	r12,24(sp)
    485c:	d8c01315 	stw	r3,76(sp)
    4860:	d9000b17 	ldw	r4,44(sp)
    4864:	20038f26 	beq	r4,zero,56a4 <_dtoa_r+0x1310>
    4868:	60bfffc4 	addi	r2,r12,-1
    486c:	100490fa 	slli	r2,r2,3
    4870:	00c00074 	movhi	r3,1
    4874:	18c16e04 	addi	r3,r3,1464
    4878:	1885883a 	add	r2,r3,r2
    487c:	11800017 	ldw	r6,0(r2)
    4880:	11c00117 	ldw	r7,4(r2)
    4884:	d8800717 	ldw	r2,28(sp)
    4888:	0009883a 	mov	r4,zero
    488c:	014ff834 	movhi	r5,16352
    4890:	db001615 	stw	r12,88(sp)
    4894:	15c00044 	addi	r23,r2,1
    4898:	000c5d40 	call	c5d4 <__divdf3>
    489c:	800d883a 	mov	r6,r16
    48a0:	880f883a 	mov	r7,r17
    48a4:	1009883a 	mov	r4,r2
    48a8:	180b883a 	mov	r5,r3
    48ac:	000d82c0 	call	d82c <__subdf3>
    48b0:	d9401017 	ldw	r5,64(sp)
    48b4:	d9000f17 	ldw	r4,60(sp)
    48b8:	102b883a 	mov	r21,r2
    48bc:	d8c01215 	stw	r3,72(sp)
    48c0:	000e1280 	call	e128 <__fixdfsi>
    48c4:	1009883a 	mov	r4,r2
    48c8:	1029883a 	mov	r20,r2
    48cc:	000e1a80 	call	e1a8 <__floatsidf>
    48d0:	d9000f17 	ldw	r4,60(sp)
    48d4:	d9401017 	ldw	r5,64(sp)
    48d8:	100d883a 	mov	r6,r2
    48dc:	180f883a 	mov	r7,r3
    48e0:	000d82c0 	call	d82c <__subdf3>
    48e4:	1823883a 	mov	r17,r3
    48e8:	d8c00717 	ldw	r3,28(sp)
    48ec:	d9401217 	ldw	r5,72(sp)
    48f0:	a2000c04 	addi	r8,r20,48
    48f4:	1021883a 	mov	r16,r2
    48f8:	1a000005 	stb	r8,0(r3)
    48fc:	800d883a 	mov	r6,r16
    4900:	880f883a 	mov	r7,r17
    4904:	a809883a 	mov	r4,r21
    4908:	4029883a 	mov	r20,r8
    490c:	000cf440 	call	cf44 <__gedf2>
    4910:	00841d16 	blt	zero,r2,5988 <_dtoa_r+0x15f4>
    4914:	800d883a 	mov	r6,r16
    4918:	880f883a 	mov	r7,r17
    491c:	0009883a 	mov	r4,zero
    4920:	014ffc34 	movhi	r5,16368
    4924:	000d82c0 	call	d82c <__subdf3>
    4928:	d9401217 	ldw	r5,72(sp)
    492c:	100d883a 	mov	r6,r2
    4930:	180f883a 	mov	r7,r3
    4934:	a809883a 	mov	r4,r21
    4938:	000cf440 	call	cf44 <__gedf2>
    493c:	db001617 	ldw	r12,88(sp)
    4940:	00840e16 	blt	zero,r2,597c <_dtoa_r+0x15e8>
    4944:	00800044 	movi	r2,1
    4948:	13006b0e 	bge	r2,r12,4af8 <_dtoa_r+0x764>
    494c:	d9000717 	ldw	r4,28(sp)
    4950:	dd800f15 	stw	r22,60(sp)
    4954:	dcc01015 	stw	r19,64(sp)
    4958:	2319883a 	add	r12,r4,r12
    495c:	dcc01217 	ldw	r19,72(sp)
    4960:	602d883a 	mov	r22,r12
    4964:	dc801215 	stw	r18,72(sp)
    4968:	b825883a 	mov	r18,r23
    496c:	00000906 	br	4994 <_dtoa_r+0x600>
    4970:	000d82c0 	call	d82c <__subdf3>
    4974:	a80d883a 	mov	r6,r21
    4978:	980f883a 	mov	r7,r19
    497c:	1009883a 	mov	r4,r2
    4980:	180b883a 	mov	r5,r3
    4984:	000d0200 	call	d020 <__ledf2>
    4988:	1003e816 	blt	r2,zero,592c <_dtoa_r+0x1598>
    498c:	b825883a 	mov	r18,r23
    4990:	bd83e926 	beq	r23,r22,5938 <_dtoa_r+0x15a4>
    4994:	a809883a 	mov	r4,r21
    4998:	980b883a 	mov	r5,r19
    499c:	000d883a 	mov	r6,zero
    49a0:	01d00934 	movhi	r7,16420
    49a4:	000d1140 	call	d114 <__muldf3>
    49a8:	000d883a 	mov	r6,zero
    49ac:	01d00934 	movhi	r7,16420
    49b0:	8009883a 	mov	r4,r16
    49b4:	880b883a 	mov	r5,r17
    49b8:	102b883a 	mov	r21,r2
    49bc:	1827883a 	mov	r19,r3
    49c0:	000d1140 	call	d114 <__muldf3>
    49c4:	180b883a 	mov	r5,r3
    49c8:	1009883a 	mov	r4,r2
    49cc:	1821883a 	mov	r16,r3
    49d0:	1023883a 	mov	r17,r2
    49d4:	000e1280 	call	e128 <__fixdfsi>
    49d8:	1009883a 	mov	r4,r2
    49dc:	1029883a 	mov	r20,r2
    49e0:	000e1a80 	call	e1a8 <__floatsidf>
    49e4:	8809883a 	mov	r4,r17
    49e8:	800b883a 	mov	r5,r16
    49ec:	100d883a 	mov	r6,r2
    49f0:	180f883a 	mov	r7,r3
    49f4:	000d82c0 	call	d82c <__subdf3>
    49f8:	a5000c04 	addi	r20,r20,48
    49fc:	a80d883a 	mov	r6,r21
    4a00:	980f883a 	mov	r7,r19
    4a04:	1009883a 	mov	r4,r2
    4a08:	180b883a 	mov	r5,r3
    4a0c:	95000005 	stb	r20,0(r18)
    4a10:	1021883a 	mov	r16,r2
    4a14:	1823883a 	mov	r17,r3
    4a18:	000d0200 	call	d020 <__ledf2>
    4a1c:	bdc00044 	addi	r23,r23,1
    4a20:	800d883a 	mov	r6,r16
    4a24:	880f883a 	mov	r7,r17
    4a28:	0009883a 	mov	r4,zero
    4a2c:	014ffc34 	movhi	r5,16368
    4a30:	103fcf0e 	bge	r2,zero,4970 <__reset+0xfbf04970>
    4a34:	d8c01317 	ldw	r3,76(sp)
    4a38:	d8c00515 	stw	r3,20(sp)
    4a3c:	d9400917 	ldw	r5,36(sp)
    4a40:	e009883a 	mov	r4,fp
    4a44:	00079b00 	call	79b0 <_Bfree>
    4a48:	d9000517 	ldw	r4,20(sp)
    4a4c:	d9802317 	ldw	r6,140(sp)
    4a50:	d9c02517 	ldw	r7,148(sp)
    4a54:	b8000005 	stb	zero,0(r23)
    4a58:	20800044 	addi	r2,r4,1
    4a5c:	30800015 	stw	r2,0(r6)
    4a60:	3802aa26 	beq	r7,zero,550c <_dtoa_r+0x1178>
    4a64:	3dc00015 	stw	r23,0(r7)
    4a68:	d8800717 	ldw	r2,28(sp)
    4a6c:	003e7906 	br	4454 <__reset+0xfbf04454>
    4a70:	00800434 	movhi	r2,16
    4a74:	10bfffc4 	addi	r2,r2,-1
    4a78:	88a2703a 	and	r17,r17,r2
    4a7c:	883e851e 	bne	r17,zero,4494 <__reset+0xfbf04494>
    4a80:	00800074 	movhi	r2,1
    4a84:	10814f04 	addi	r2,r2,1340
    4a88:	003e8406 	br	449c <__reset+0xfbf0449c>
    4a8c:	10c00204 	addi	r3,r2,8
    4a90:	003e8706 	br	44b0 <__reset+0xfbf044b0>
    4a94:	01400434 	movhi	r5,16
    4a98:	297fffc4 	addi	r5,r5,-1
    4a9c:	994a703a 	and	r5,r19,r5
    4aa0:	9009883a 	mov	r4,r18
    4aa4:	843f0044 	addi	r16,r16,-1023
    4aa8:	294ffc34 	orhi	r5,r5,16368
    4aac:	dd800217 	ldw	r22,8(sp)
    4ab0:	d8001115 	stw	zero,68(sp)
    4ab4:	003ea506 	br	454c <__reset+0xfbf0454c>
    4ab8:	00800074 	movhi	r2,1
    4abc:	10814604 	addi	r2,r2,1304
    4ac0:	003e6406 	br	4454 <__reset+0xfbf04454>
    4ac4:	e0001115 	stw	zero,68(fp)
    4ac8:	000b883a 	mov	r5,zero
    4acc:	e009883a 	mov	r4,fp
    4ad0:	00079080 	call	7908 <_Balloc>
    4ad4:	01bfffc4 	movi	r6,-1
    4ad8:	01c00044 	movi	r7,1
    4adc:	d8800715 	stw	r2,28(sp)
    4ae0:	d9800c15 	stw	r6,48(sp)
    4ae4:	e0801015 	stw	r2,64(fp)
    4ae8:	d8000315 	stw	zero,12(sp)
    4aec:	d9c00b15 	stw	r7,44(sp)
    4af0:	d9800615 	stw	r6,24(sp)
    4af4:	d8002215 	stw	zero,136(sp)
    4af8:	d8800117 	ldw	r2,4(sp)
    4afc:	10008916 	blt	r2,zero,4d24 <_dtoa_r+0x990>
    4b00:	d9000517 	ldw	r4,20(sp)
    4b04:	00c00384 	movi	r3,14
    4b08:	19008616 	blt	r3,r4,4d24 <_dtoa_r+0x990>
    4b0c:	200490fa 	slli	r2,r4,3
    4b10:	00c00074 	movhi	r3,1
    4b14:	d9802217 	ldw	r6,136(sp)
    4b18:	18c16e04 	addi	r3,r3,1464
    4b1c:	1885883a 	add	r2,r3,r2
    4b20:	14000017 	ldw	r16,0(r2)
    4b24:	14400117 	ldw	r17,4(r2)
    4b28:	30016316 	blt	r6,zero,50b8 <_dtoa_r+0xd24>
    4b2c:	800d883a 	mov	r6,r16
    4b30:	880f883a 	mov	r7,r17
    4b34:	9009883a 	mov	r4,r18
    4b38:	980b883a 	mov	r5,r19
    4b3c:	000c5d40 	call	c5d4 <__divdf3>
    4b40:	180b883a 	mov	r5,r3
    4b44:	1009883a 	mov	r4,r2
    4b48:	000e1280 	call	e128 <__fixdfsi>
    4b4c:	1009883a 	mov	r4,r2
    4b50:	102b883a 	mov	r21,r2
    4b54:	000e1a80 	call	e1a8 <__floatsidf>
    4b58:	800d883a 	mov	r6,r16
    4b5c:	880f883a 	mov	r7,r17
    4b60:	1009883a 	mov	r4,r2
    4b64:	180b883a 	mov	r5,r3
    4b68:	000d1140 	call	d114 <__muldf3>
    4b6c:	100d883a 	mov	r6,r2
    4b70:	180f883a 	mov	r7,r3
    4b74:	9009883a 	mov	r4,r18
    4b78:	980b883a 	mov	r5,r19
    4b7c:	000d82c0 	call	d82c <__subdf3>
    4b80:	d9c00717 	ldw	r7,28(sp)
    4b84:	1009883a 	mov	r4,r2
    4b88:	a8800c04 	addi	r2,r21,48
    4b8c:	38800005 	stb	r2,0(r7)
    4b90:	3dc00044 	addi	r23,r7,1
    4b94:	d9c00617 	ldw	r7,24(sp)
    4b98:	01800044 	movi	r6,1
    4b9c:	180b883a 	mov	r5,r3
    4ba0:	2005883a 	mov	r2,r4
    4ba4:	39803826 	beq	r7,r6,4c88 <_dtoa_r+0x8f4>
    4ba8:	000d883a 	mov	r6,zero
    4bac:	01d00934 	movhi	r7,16420
    4bb0:	000d1140 	call	d114 <__muldf3>
    4bb4:	000d883a 	mov	r6,zero
    4bb8:	000f883a 	mov	r7,zero
    4bbc:	1009883a 	mov	r4,r2
    4bc0:	180b883a 	mov	r5,r3
    4bc4:	1025883a 	mov	r18,r2
    4bc8:	1827883a 	mov	r19,r3
    4bcc:	000cebc0 	call	cebc <__eqdf2>
    4bd0:	103f9a26 	beq	r2,zero,4a3c <__reset+0xfbf04a3c>
    4bd4:	d9c00617 	ldw	r7,24(sp)
    4bd8:	d8c00717 	ldw	r3,28(sp)
    4bdc:	b829883a 	mov	r20,r23
    4be0:	38bfffc4 	addi	r2,r7,-1
    4be4:	18ad883a 	add	r22,r3,r2
    4be8:	00000a06 	br	4c14 <_dtoa_r+0x880>
    4bec:	000d1140 	call	d114 <__muldf3>
    4bf0:	000d883a 	mov	r6,zero
    4bf4:	000f883a 	mov	r7,zero
    4bf8:	1009883a 	mov	r4,r2
    4bfc:	180b883a 	mov	r5,r3
    4c00:	1025883a 	mov	r18,r2
    4c04:	1827883a 	mov	r19,r3
    4c08:	b829883a 	mov	r20,r23
    4c0c:	000cebc0 	call	cebc <__eqdf2>
    4c10:	103f8a26 	beq	r2,zero,4a3c <__reset+0xfbf04a3c>
    4c14:	800d883a 	mov	r6,r16
    4c18:	880f883a 	mov	r7,r17
    4c1c:	9009883a 	mov	r4,r18
    4c20:	980b883a 	mov	r5,r19
    4c24:	000c5d40 	call	c5d4 <__divdf3>
    4c28:	180b883a 	mov	r5,r3
    4c2c:	1009883a 	mov	r4,r2
    4c30:	000e1280 	call	e128 <__fixdfsi>
    4c34:	1009883a 	mov	r4,r2
    4c38:	102b883a 	mov	r21,r2
    4c3c:	000e1a80 	call	e1a8 <__floatsidf>
    4c40:	800d883a 	mov	r6,r16
    4c44:	880f883a 	mov	r7,r17
    4c48:	1009883a 	mov	r4,r2
    4c4c:	180b883a 	mov	r5,r3
    4c50:	000d1140 	call	d114 <__muldf3>
    4c54:	100d883a 	mov	r6,r2
    4c58:	180f883a 	mov	r7,r3
    4c5c:	9009883a 	mov	r4,r18
    4c60:	980b883a 	mov	r5,r19
    4c64:	000d82c0 	call	d82c <__subdf3>
    4c68:	aa000c04 	addi	r8,r21,48
    4c6c:	a2000005 	stb	r8,0(r20)
    4c70:	000d883a 	mov	r6,zero
    4c74:	01d00934 	movhi	r7,16420
    4c78:	1009883a 	mov	r4,r2
    4c7c:	180b883a 	mov	r5,r3
    4c80:	a5c00044 	addi	r23,r20,1
    4c84:	b53fd91e 	bne	r22,r20,4bec <__reset+0xfbf04bec>
    4c88:	100d883a 	mov	r6,r2
    4c8c:	180f883a 	mov	r7,r3
    4c90:	1009883a 	mov	r4,r2
    4c94:	180b883a 	mov	r5,r3
    4c98:	000bd280 	call	bd28 <__adddf3>
    4c9c:	100d883a 	mov	r6,r2
    4ca0:	180f883a 	mov	r7,r3
    4ca4:	8009883a 	mov	r4,r16
    4ca8:	880b883a 	mov	r5,r17
    4cac:	1027883a 	mov	r19,r2
    4cb0:	1825883a 	mov	r18,r3
    4cb4:	000d0200 	call	d020 <__ledf2>
    4cb8:	10000816 	blt	r2,zero,4cdc <_dtoa_r+0x948>
    4cbc:	980d883a 	mov	r6,r19
    4cc0:	900f883a 	mov	r7,r18
    4cc4:	8009883a 	mov	r4,r16
    4cc8:	880b883a 	mov	r5,r17
    4ccc:	000cebc0 	call	cebc <__eqdf2>
    4cd0:	103f5a1e 	bne	r2,zero,4a3c <__reset+0xfbf04a3c>
    4cd4:	ad40004c 	andi	r21,r21,1
    4cd8:	a83f5826 	beq	r21,zero,4a3c <__reset+0xfbf04a3c>
    4cdc:	bd3fffc3 	ldbu	r20,-1(r23)
    4ce0:	b8bfffc4 	addi	r2,r23,-1
    4ce4:	1007883a 	mov	r3,r2
    4ce8:	01400e44 	movi	r5,57
    4cec:	d9800717 	ldw	r6,28(sp)
    4cf0:	00000506 	br	4d08 <_dtoa_r+0x974>
    4cf4:	18ffffc4 	addi	r3,r3,-1
    4cf8:	11824726 	beq	r2,r6,5618 <_dtoa_r+0x1284>
    4cfc:	1d000003 	ldbu	r20,0(r3)
    4d00:	102f883a 	mov	r23,r2
    4d04:	10bfffc4 	addi	r2,r2,-1
    4d08:	a1003fcc 	andi	r4,r20,255
    4d0c:	2100201c 	xori	r4,r4,128
    4d10:	213fe004 	addi	r4,r4,-128
    4d14:	217ff726 	beq	r4,r5,4cf4 <__reset+0xfbf04cf4>
    4d18:	a2000044 	addi	r8,r20,1
    4d1c:	12000005 	stb	r8,0(r2)
    4d20:	003f4606 	br	4a3c <__reset+0xfbf04a3c>
    4d24:	d9000b17 	ldw	r4,44(sp)
    4d28:	2000c826 	beq	r4,zero,504c <_dtoa_r+0xcb8>
    4d2c:	d9800317 	ldw	r6,12(sp)
    4d30:	00c00044 	movi	r3,1
    4d34:	1980f90e 	bge	r3,r6,511c <_dtoa_r+0xd88>
    4d38:	d8800617 	ldw	r2,24(sp)
    4d3c:	d8c00a17 	ldw	r3,40(sp)
    4d40:	157fffc4 	addi	r21,r2,-1
    4d44:	1d41f316 	blt	r3,r21,5514 <_dtoa_r+0x1180>
    4d48:	1d6bc83a 	sub	r21,r3,r21
    4d4c:	d9c00617 	ldw	r7,24(sp)
    4d50:	3802aa16 	blt	r7,zero,57fc <_dtoa_r+0x1468>
    4d54:	dd000817 	ldw	r20,32(sp)
    4d58:	d8800617 	ldw	r2,24(sp)
    4d5c:	d8c00817 	ldw	r3,32(sp)
    4d60:	01400044 	movi	r5,1
    4d64:	e009883a 	mov	r4,fp
    4d68:	1887883a 	add	r3,r3,r2
    4d6c:	d8c00815 	stw	r3,32(sp)
    4d70:	b0ad883a 	add	r22,r22,r2
    4d74:	0007d140 	call	7d14 <__i2b>
    4d78:	1023883a 	mov	r17,r2
    4d7c:	a0000826 	beq	r20,zero,4da0 <_dtoa_r+0xa0c>
    4d80:	0580070e 	bge	zero,r22,4da0 <_dtoa_r+0xa0c>
    4d84:	a005883a 	mov	r2,r20
    4d88:	b500b916 	blt	r22,r20,5070 <_dtoa_r+0xcdc>
    4d8c:	d9000817 	ldw	r4,32(sp)
    4d90:	a0a9c83a 	sub	r20,r20,r2
    4d94:	b0adc83a 	sub	r22,r22,r2
    4d98:	2089c83a 	sub	r4,r4,r2
    4d9c:	d9000815 	stw	r4,32(sp)
    4da0:	d9800a17 	ldw	r6,40(sp)
    4da4:	0181810e 	bge	zero,r6,53ac <_dtoa_r+0x1018>
    4da8:	d9c00b17 	ldw	r7,44(sp)
    4dac:	3800b326 	beq	r7,zero,507c <_dtoa_r+0xce8>
    4db0:	a800b226 	beq	r21,zero,507c <_dtoa_r+0xce8>
    4db4:	880b883a 	mov	r5,r17
    4db8:	a80d883a 	mov	r6,r21
    4dbc:	e009883a 	mov	r4,fp
    4dc0:	0007f480 	call	7f48 <__pow5mult>
    4dc4:	d9800917 	ldw	r6,36(sp)
    4dc8:	100b883a 	mov	r5,r2
    4dcc:	e009883a 	mov	r4,fp
    4dd0:	1023883a 	mov	r17,r2
    4dd4:	0007d500 	call	7d50 <__multiply>
    4dd8:	1021883a 	mov	r16,r2
    4ddc:	d8800a17 	ldw	r2,40(sp)
    4de0:	d9400917 	ldw	r5,36(sp)
    4de4:	e009883a 	mov	r4,fp
    4de8:	1545c83a 	sub	r2,r2,r21
    4dec:	d8800a15 	stw	r2,40(sp)
    4df0:	00079b00 	call	79b0 <_Bfree>
    4df4:	d8c00a17 	ldw	r3,40(sp)
    4df8:	18009f1e 	bne	r3,zero,5078 <_dtoa_r+0xce4>
    4dfc:	05c00044 	movi	r23,1
    4e00:	e009883a 	mov	r4,fp
    4e04:	b80b883a 	mov	r5,r23
    4e08:	0007d140 	call	7d14 <__i2b>
    4e0c:	d9000d17 	ldw	r4,52(sp)
    4e10:	102b883a 	mov	r21,r2
    4e14:	2000ce26 	beq	r4,zero,5150 <_dtoa_r+0xdbc>
    4e18:	200d883a 	mov	r6,r4
    4e1c:	100b883a 	mov	r5,r2
    4e20:	e009883a 	mov	r4,fp
    4e24:	0007f480 	call	7f48 <__pow5mult>
    4e28:	d9800317 	ldw	r6,12(sp)
    4e2c:	102b883a 	mov	r21,r2
    4e30:	b981810e 	bge	r23,r6,5438 <_dtoa_r+0x10a4>
    4e34:	0027883a 	mov	r19,zero
    4e38:	a8800417 	ldw	r2,16(r21)
    4e3c:	05c00804 	movi	r23,32
    4e40:	10800104 	addi	r2,r2,4
    4e44:	1085883a 	add	r2,r2,r2
    4e48:	1085883a 	add	r2,r2,r2
    4e4c:	a885883a 	add	r2,r21,r2
    4e50:	11000017 	ldw	r4,0(r2)
    4e54:	0007bfc0 	call	7bfc <__hi0bits>
    4e58:	b885c83a 	sub	r2,r23,r2
    4e5c:	1585883a 	add	r2,r2,r22
    4e60:	108007cc 	andi	r2,r2,31
    4e64:	1000b326 	beq	r2,zero,5134 <_dtoa_r+0xda0>
    4e68:	00c00804 	movi	r3,32
    4e6c:	1887c83a 	sub	r3,r3,r2
    4e70:	01000104 	movi	r4,4
    4e74:	20c2cd0e 	bge	r4,r3,59ac <_dtoa_r+0x1618>
    4e78:	00c00704 	movi	r3,28
    4e7c:	1885c83a 	sub	r2,r3,r2
    4e80:	d8c00817 	ldw	r3,32(sp)
    4e84:	a0a9883a 	add	r20,r20,r2
    4e88:	b0ad883a 	add	r22,r22,r2
    4e8c:	1887883a 	add	r3,r3,r2
    4e90:	d8c00815 	stw	r3,32(sp)
    4e94:	d9800817 	ldw	r6,32(sp)
    4e98:	0180040e 	bge	zero,r6,4eac <_dtoa_r+0xb18>
    4e9c:	800b883a 	mov	r5,r16
    4ea0:	e009883a 	mov	r4,fp
    4ea4:	00080880 	call	8088 <__lshift>
    4ea8:	1021883a 	mov	r16,r2
    4eac:	0580050e 	bge	zero,r22,4ec4 <_dtoa_r+0xb30>
    4eb0:	a80b883a 	mov	r5,r21
    4eb4:	b00d883a 	mov	r6,r22
    4eb8:	e009883a 	mov	r4,fp
    4ebc:	00080880 	call	8088 <__lshift>
    4ec0:	102b883a 	mov	r21,r2
    4ec4:	d9c00e17 	ldw	r7,56(sp)
    4ec8:	3801211e 	bne	r7,zero,5350 <_dtoa_r+0xfbc>
    4ecc:	d9800617 	ldw	r6,24(sp)
    4ed0:	0181380e 	bge	zero,r6,53b4 <_dtoa_r+0x1020>
    4ed4:	d8c00b17 	ldw	r3,44(sp)
    4ed8:	1800ab1e 	bne	r3,zero,5188 <_dtoa_r+0xdf4>
    4edc:	dc800717 	ldw	r18,28(sp)
    4ee0:	dcc00617 	ldw	r19,24(sp)
    4ee4:	9029883a 	mov	r20,r18
    4ee8:	00000206 	br	4ef4 <_dtoa_r+0xb60>
    4eec:	00079d80 	call	79d8 <__multadd>
    4ef0:	1021883a 	mov	r16,r2
    4ef4:	a80b883a 	mov	r5,r21
    4ef8:	8009883a 	mov	r4,r16
    4efc:	00041940 	call	4194 <quorem>
    4f00:	10800c04 	addi	r2,r2,48
    4f04:	90800005 	stb	r2,0(r18)
    4f08:	94800044 	addi	r18,r18,1
    4f0c:	9507c83a 	sub	r3,r18,r20
    4f10:	000f883a 	mov	r7,zero
    4f14:	01800284 	movi	r6,10
    4f18:	800b883a 	mov	r5,r16
    4f1c:	e009883a 	mov	r4,fp
    4f20:	1cfff216 	blt	r3,r19,4eec <__reset+0xfbf04eec>
    4f24:	1011883a 	mov	r8,r2
    4f28:	d8800617 	ldw	r2,24(sp)
    4f2c:	0082370e 	bge	zero,r2,580c <_dtoa_r+0x1478>
    4f30:	d9000717 	ldw	r4,28(sp)
    4f34:	0025883a 	mov	r18,zero
    4f38:	20af883a 	add	r23,r4,r2
    4f3c:	01800044 	movi	r6,1
    4f40:	800b883a 	mov	r5,r16
    4f44:	e009883a 	mov	r4,fp
    4f48:	da001715 	stw	r8,92(sp)
    4f4c:	00080880 	call	8088 <__lshift>
    4f50:	a80b883a 	mov	r5,r21
    4f54:	1009883a 	mov	r4,r2
    4f58:	d8800915 	stw	r2,36(sp)
    4f5c:	00081d00 	call	81d0 <__mcmp>
    4f60:	da001717 	ldw	r8,92(sp)
    4f64:	0081800e 	bge	zero,r2,5568 <_dtoa_r+0x11d4>
    4f68:	b93fffc3 	ldbu	r4,-1(r23)
    4f6c:	b8bfffc4 	addi	r2,r23,-1
    4f70:	1007883a 	mov	r3,r2
    4f74:	01800e44 	movi	r6,57
    4f78:	d9c00717 	ldw	r7,28(sp)
    4f7c:	00000506 	br	4f94 <_dtoa_r+0xc00>
    4f80:	18ffffc4 	addi	r3,r3,-1
    4f84:	11c12326 	beq	r2,r7,5414 <_dtoa_r+0x1080>
    4f88:	19000003 	ldbu	r4,0(r3)
    4f8c:	102f883a 	mov	r23,r2
    4f90:	10bfffc4 	addi	r2,r2,-1
    4f94:	21403fcc 	andi	r5,r4,255
    4f98:	2940201c 	xori	r5,r5,128
    4f9c:	297fe004 	addi	r5,r5,-128
    4fa0:	29bff726 	beq	r5,r6,4f80 <__reset+0xfbf04f80>
    4fa4:	21000044 	addi	r4,r4,1
    4fa8:	11000005 	stb	r4,0(r2)
    4fac:	a80b883a 	mov	r5,r21
    4fb0:	e009883a 	mov	r4,fp
    4fb4:	00079b00 	call	79b0 <_Bfree>
    4fb8:	883ea026 	beq	r17,zero,4a3c <__reset+0xfbf04a3c>
    4fbc:	90000426 	beq	r18,zero,4fd0 <_dtoa_r+0xc3c>
    4fc0:	94400326 	beq	r18,r17,4fd0 <_dtoa_r+0xc3c>
    4fc4:	900b883a 	mov	r5,r18
    4fc8:	e009883a 	mov	r4,fp
    4fcc:	00079b00 	call	79b0 <_Bfree>
    4fd0:	880b883a 	mov	r5,r17
    4fd4:	e009883a 	mov	r4,fp
    4fd8:	00079b00 	call	79b0 <_Bfree>
    4fdc:	003e9706 	br	4a3c <__reset+0xfbf04a3c>
    4fe0:	01800044 	movi	r6,1
    4fe4:	d9800e15 	stw	r6,56(sp)
    4fe8:	003d9606 	br	4644 <__reset+0xfbf04644>
    4fec:	d8800817 	ldw	r2,32(sp)
    4ff0:	d8c00517 	ldw	r3,20(sp)
    4ff4:	d8000d15 	stw	zero,52(sp)
    4ff8:	10c5c83a 	sub	r2,r2,r3
    4ffc:	00c9c83a 	sub	r4,zero,r3
    5000:	d8800815 	stw	r2,32(sp)
    5004:	d9000a15 	stw	r4,40(sp)
    5008:	003d9706 	br	4668 <__reset+0xfbf04668>
    500c:	05adc83a 	sub	r22,zero,r22
    5010:	dd800815 	stw	r22,32(sp)
    5014:	002d883a 	mov	r22,zero
    5018:	003d8e06 	br	4654 <__reset+0xfbf04654>
    501c:	d9000517 	ldw	r4,20(sp)
    5020:	000e1a80 	call	e1a8 <__floatsidf>
    5024:	100d883a 	mov	r6,r2
    5028:	180f883a 	mov	r7,r3
    502c:	a009883a 	mov	r4,r20
    5030:	880b883a 	mov	r5,r17
    5034:	000cebc0 	call	cebc <__eqdf2>
    5038:	103d7126 	beq	r2,zero,4600 <__reset+0xfbf04600>
    503c:	d9c00517 	ldw	r7,20(sp)
    5040:	39ffffc4 	addi	r7,r7,-1
    5044:	d9c00515 	stw	r7,20(sp)
    5048:	003d6d06 	br	4600 <__reset+0xfbf04600>
    504c:	dd400a17 	ldw	r21,40(sp)
    5050:	dd000817 	ldw	r20,32(sp)
    5054:	0023883a 	mov	r17,zero
    5058:	003f4806 	br	4d7c <__reset+0xfbf04d7c>
    505c:	10e3c83a 	sub	r17,r2,r3
    5060:	9448983a 	sll	r4,r18,r17
    5064:	003d3206 	br	4530 <__reset+0xfbf04530>
    5068:	d8000e15 	stw	zero,56(sp)
    506c:	003d7506 	br	4644 <__reset+0xfbf04644>
    5070:	b005883a 	mov	r2,r22
    5074:	003f4506 	br	4d8c <__reset+0xfbf04d8c>
    5078:	dc000915 	stw	r16,36(sp)
    507c:	d9800a17 	ldw	r6,40(sp)
    5080:	d9400917 	ldw	r5,36(sp)
    5084:	e009883a 	mov	r4,fp
    5088:	0007f480 	call	7f48 <__pow5mult>
    508c:	1021883a 	mov	r16,r2
    5090:	003f5a06 	br	4dfc <__reset+0xfbf04dfc>
    5094:	01c00044 	movi	r7,1
    5098:	d9c00b15 	stw	r7,44(sp)
    509c:	d8802217 	ldw	r2,136(sp)
    50a0:	0081280e 	bge	zero,r2,5544 <_dtoa_r+0x11b0>
    50a4:	100d883a 	mov	r6,r2
    50a8:	1021883a 	mov	r16,r2
    50ac:	d8800c15 	stw	r2,48(sp)
    50b0:	d8800615 	stw	r2,24(sp)
    50b4:	003d8806 	br	46d8 <__reset+0xfbf046d8>
    50b8:	d8800617 	ldw	r2,24(sp)
    50bc:	00be9b16 	blt	zero,r2,4b2c <__reset+0xfbf04b2c>
    50c0:	10010f1e 	bne	r2,zero,5500 <_dtoa_r+0x116c>
    50c4:	880b883a 	mov	r5,r17
    50c8:	000d883a 	mov	r6,zero
    50cc:	01d00534 	movhi	r7,16404
    50d0:	8009883a 	mov	r4,r16
    50d4:	000d1140 	call	d114 <__muldf3>
    50d8:	900d883a 	mov	r6,r18
    50dc:	980f883a 	mov	r7,r19
    50e0:	1009883a 	mov	r4,r2
    50e4:	180b883a 	mov	r5,r3
    50e8:	000cf440 	call	cf44 <__gedf2>
    50ec:	002b883a 	mov	r21,zero
    50f0:	0023883a 	mov	r17,zero
    50f4:	1000bf16 	blt	r2,zero,53f4 <_dtoa_r+0x1060>
    50f8:	d9802217 	ldw	r6,136(sp)
    50fc:	ddc00717 	ldw	r23,28(sp)
    5100:	018c303a 	nor	r6,zero,r6
    5104:	d9800515 	stw	r6,20(sp)
    5108:	a80b883a 	mov	r5,r21
    510c:	e009883a 	mov	r4,fp
    5110:	00079b00 	call	79b0 <_Bfree>
    5114:	883e4926 	beq	r17,zero,4a3c <__reset+0xfbf04a3c>
    5118:	003fad06 	br	4fd0 <__reset+0xfbf04fd0>
